(lp0
(lp1
F2.9397294521331787
aF2.938922166824341
aF2.9388985633850098
aF2.9388740062713623
aF1.9054852724075317
aF1.9053785800933838
aF1.9052709341049194
aF1.9053432941436768
aF0.7972992658615112
aF0.7973071336746216
aF0.7971926331520081
aF0.7971340417861938
aF0.7970728874206543
aF0.7970255613327026
aF0.7970283031463623
aF-0.7508222460746765
aF-0.7509098649024963
aF-0.7509886026382446
aF-0.7510302662849426
aF-2.19496750831604
aF-2.1950762271881104
aF-2.1951863765716553
aF-2.1951773166656494
aF-2.195314645767212
aF-2.655850648880005
aF-2.6557068824768066
aF-2.656374216079712
aF-2.6564383506774902
aF-2.6564888954162598
aF-2.655869245529175
aF-2.9379465579986572
aF-2.9383809566497803
aF-2.9388034343719482
aF-2.938889980316162
aF-2.9389195442199707
aF-2.938826322555542
aF-1.9054059982299805
aF-1.905359148979187
aF-1.9054535627365112
aF-1.9054269790649414
aF-1.9056971073150635
aF-0.7973422408103943
aF-0.7970735430717468
aF-0.7971731424331665
aF-0.797213613986969
aF-0.7973353862762451
aF0.7510903477668762
aF0.7510668039321899
aF0.7510936260223389
aF0.7510468363761902
aF0.7509942650794983
aF0.75077885389328
aF2.1953368186950684
aF2.1953327655792236
aF2.1952269077301025
aF2.1952035427093506
aF2.6570305824279785
aF2.6565089225769043
aF2.656459331512451
aF2.6564979553222656
aF2.656418561935425
aF2.656311511993408
aF2.656046152114868
aF6.877923965454102
aF6.877582550048828
aF6.172037601470947
aF6.171685695648193
aF6.171638011932373
aF6.171599864959717
aF5.810705661773682
aF4.5738654136657715
aF4.573745250701904
aF4.573670387268066
aF3.5927276611328125
aF3.5927491188049316
aF2.0702357292175293
aF2.070099115371704
aF2.0700671672821045
aF2.069905996322632
aF2.0696914196014404
aF-0.844000518321991
aF-2.3977503776550293
aF-3.590514898300171
aF-4.9839067459106445
aF-4.98401403427124
aF-5.6259236335754395
aF-6.547252655029297
aF-6.8777079582214355
aF-6.8778977394104
aF-6.87785005569458
aF-6.171455383300781
aF-6.1715850830078125
aF-6.171778202056885
aF-6.171881675720215
aF-6.1720147132873535
aF-5.810568809509277
aF-5.810794830322266
aF-5.8106231689453125
aF-5.8107123374938965
aF-4.573849678039551
aF-4.573894500732422
aF-3.5926196575164795
aF-3.592733860015869
aF-2.069927453994751
aF-2.069875478744507
aF-2.0701816082000732
aF0.8439421653747559
aF0.8439379334449768
aF0.843898355960846
aF0.8438265919685364
aF0.8437076807022095
aF2.3980462551116943
aF2.397827625274658
aF4.983794689178467
aF5.626244068145752
aF5.626057147979736
aF5.626010894775391
aF5.625720977783203
aF6.5829176902771
aF6.5825114250183105
aF6.582793235778809
aF6.547488689422607
aF6.547444820404053
aF6.547538757324219
aF6.547389984130859
aF6.547104835510254
aF11.01036262512207
aF10.467676162719727
aF10.467564582824707
aF10.467674255371094
aF8.849316596984863
aF8.849000930786133
aF6.632804870605469
aF6.632491588592529
aF6.6324238777160645
aF6.632270812988281
aF5.15106725692749
aF3.8786702156066895
aF3.8784067630767822
aF2.2979960441589355
aF-3.7207155227661133
aF-3.7209079265594482
aF-3.72121524810791
aF-3.7211403846740723
aF-6.399167060852051
aF-8.558379173278809
aF-9.675861358642578
aF-9.67602252960205
aF-10.77959156036377
aF-10.678580284118652
aF-11.010363578796387
aF-10.467249870300293
aF-10.467772483825684
aF-10.467605590820312
aF-10.349210739135742
aF-10.348891258239746
aF-10.349190711975098
aF-10.348953247070312
aF-10.34911823272705
aF-9.408524513244629
aF-9.408390998840332
aF-9.40826416015625
aF-8.849200248718262
aF-8.84931755065918
aF-6.632537364959717
aF-2.2976603507995605
aF-2.2978219985961914
aF0.7417433857917786
aF0.7416919469833374
aF0.7417346239089966
aF0.7417274713516235
aF0.7416126728057861
aF2.3238189220428467
aF2.3237464427948
aF3.7210304737091064
aF6.399048805236816
aF7.788186550140381
aF8.558355331420898
aF9.676143646240234
aF10.024803161621094
aF10.02468204498291
aF10.024484634399414
aF10.77970027923584
aF10.779729843139648
aF10.779806137084961
aF10.678508758544922
aF10.678491592407227
aF15.973896026611328
aF15.973315238952637
aF15.973543167114258
aF12.712137222290039
aF12.71157455444336
aF10.632076263427734
aF10.631745338439941
aF9.630468368530273
aF6.917252540588379
aF5.34209680557251
aF-3.8278701305389404
aF-6.748409271240234
aF-6.7486491203308105
aF-9.409347534179688
aF-10.831748008728027
aF-12.959822654724121
aF-13.557151794433594
aF-14.5894775390625
aF-14.589402198791504
aF-14.88533878326416
aF-15.658748626708984
aF-15.641568183898926
aF-16.1260929107666
aF-15.796821594238281
aF-15.973684310913086
aF-15.344820022583008
aF-15.207588195800781
aF-15.207529067993164
aF-14.303035736083984
aF-13.856794357299805
aF-13.856929779052734
aF-13.856635093688965
aF-12.711797714233398
aF-10.632063865661621
aF-8.143470764160156
aF-8.143402099609375
aF-6.917417526245117
aF-5.342123508453369
aF-3.9380452632904053
aF-0.8208684325218201
aF0.761059045791626
aF2.3539555072784424
aF2.3541300296783447
aF9.409173011779785
aF13.557663917541504
aF14.589571952819824
aF14.589253425598145
aF15.658791542053223
aF15.658554077148438
aF15.641680717468262
aF16.126073837280273
aF7.595944881439209
aF7.3425068855285645
aF2.781373977661133
aF-1.6099019050598145
aF-2.737271308898926
aF-3.699824094772339
aF-4.677462100982666
aF-5.489837646484375
aF-6.238659858703613
aF-6.835095405578613
aF-7.626547813415527
aF-7.8001179695129395
aF-7.595261096954346
aF-7.341787815093994
aF-6.816211700439453
aF-6.289010047912598
aF-5.485215187072754
aF-4.726446628570557
aF-2.780856132507324
aF-1.6330137252807617
aF1.6102192401885986
aF2.737553596496582
aF3.7000744342803955
aF4.677769184112549
aF7.62703800201416
aF7.34925651550293
aF1.6502913236618042
aF0.7378906011581421
aF-5.274226188659668
aF-12.477377891540527
aF-12.64576244354248
aF-12.781968116760254
aF-12.78177547454834
aF-12.089630126953125
aF-11.758573532104492
aF-11.116107940673828
aF-10.633807182312012
aF7.759600639343262
aF7.800545692443848
aF7.59555721282959
aF7.342062473297119
aF5.485159873962402
aF3.7094359397888184
aF2.781033515930176
aF-1.6100736856460571
aF-5.490025997161865
aF-6.83546257019043
aF-7.294832706451416
aF-7.6269073486328125
aF-7.800352573394775
aF-7.595488548278809
aF-7.341927528381348
aF-6.816351413726807
aF-6.289092540740967
aF-2.780198574066162
aF-1.6324007511138916
aF1.6105090379714966
aF2.737776756286621
aF4.678013324737549
aF5.490439414978027
aF7.295090675354004
aF3.953019618988037
aF3.0716917514801025
aF-5.274360656738281
aF-7.325788497924805
aF-10.618741989135742
aF-11.101007461547852
aF-12.477459907531738
aF-12.089600563049316
aF-11.75847053527832
aF-11.115984916687012
aF12.079544067382812
aF7.756507873535156
aF7.79791784286499
aF7.591015338897705
aF3.70658540725708
aF2.778003692626953
aF1.6315990686416626
aF0.6080722212791443
aF-0.5756912231445312
aF-1.6106284856796265
aF-2.7374181747436523
aF-5.489884376525879
aF-7.298366546630859
aF-7.630247592926025
aF-7.762511730194092
aF-7.8025922775268555
aF-7.598172664642334
aF-7.344168186187744
aF-6.818817615509033
aF-6.2917094230651855
aF-5.4803619384765625
aF-3.7017529010772705
aF-2.773474931716919
aF-1.6259444952011108
aF1.611281394958496
aF6.240121841430664
aF7.62801456451416
aF12.781980514526367
aF12.782358169555664
aF12.651633262634277
aF3.95298433303833
aF3.071641445159912
aF-3.043530225753784
aF-3.9248974323272705
aF-7.326474189758301
aF-8.05755615234375
aF-10.619182586669922
aF-12.079329490661621
aF-12.48302173614502
aF-11.115228652954102
aF-10.633041381835938
aF9.74590015411377
aF11.749092102050781
aF12.080121040344238
aF7.758616924285889
aF7.799743175506592
aF7.595032215118408
aF5.484864234924316
aF3.7091336250305176
aF2.7807106971740723
aF1.632956624031067
aF0.6099701523780823
aF-0.575587809085846
aF-7.59569787979126
aF-7.342233657836914
aF-6.289517879486084
aF-5.485656261444092
aF-4.726931571960449
aF-1.6337834596633911
aF-0.6107981204986572
aF1.6095279455184937
aF2.7367963790893555
aF3.699328899383545
aF6.8345184326171875
aF12.780799865722656
aF11.757768630981445
aF7.348001956939697
aF-12.482649803161621
aF-9.146933555603027
aF-8.079865455627441
aF-7.348659515380859
aF1.621133804321289
aF7.758484840393066
aF7.799466133117676
aF7.594567775726318
aF5.484486103057861
aF3.7089552879333496
aF1.6329654455184937
aF0.6099078059196472
aF-6.8356614112854
aF-7.295317649841309
aF-7.759852409362793
aF-7.8008270263671875
aF-7.596161842346191
aF-7.342643737792969
aF-5.486149787902832
aF-4.727223873138428
aF-1.634053349494934
aF-0.6110672950744629
aF3.6990933418273926
aF6.238176345825195
aF12.77971076965332
aF12.780397415161133
aF6.119585037231445
aF5.299402236938477
aF-8.079867362976074
aF-7.348683834075928
aF3.0432190895080566
aF12.644891738891602
aF6.810242176055908
aF6.283736228942871
aF1.6318981647491455
aF0.6076127290725708
aF-0.5743095874786377
aF-6.837779521942139
aF-7.803345680236816
aF-7.3460259437561035
aF-6.821401119232178
aF-6.294491291046143
aF-5.48658561706543
aF-3.710336208343506
aF-1.6342453956604004
aF-0.6108248233795166
aF3.6983766555786133
aF4.676321506500244
aF5.48907995223999
aF9.763216018676758
aF9.14608383178711
aF8.079147338867188
aF7.347849369049072
aF6.119593620300293
aF-1.650423288345337
aF3.9243154525756836
aF6.094231605529785
aF2.938743829727173
aF2.938856363296509
aF1.9052231311798096
aF0.7972742319107056
aF-0.7511818408966064
aF-0.7511042952537537
aF-2.1945791244506836
aF-2.1952385902404785
aF-2.1952133178710938
aF-2.656301498413086
aF-2.6562070846557617
aF-2.9387991428375244
aF-0.7971748113632202
aF-0.7975752949714661
aF0.7511289715766907
aF0.7508251667022705
aF2.195293664932251
aF2.194992780685425
aF2.1947414875030518
aF2.6559906005859375
aF6.877678394317627
aF5.810539722442627
aF5.810410499572754
aF4.573847770690918
aF4.573652267456055
aF3.592576503753662
aF3.5925204753875732
aF2.0698304176330566
aF2.0697319507598877
aF0.688934862613678
aF0.6888194680213928
aF0.6886070966720581
aF-0.8438611030578613
aF-0.8441466689109802
aF-0.8441567420959473
aF-2.3978846073150635
aF-3.590505838394165
aF-3.5908102989196777
aF-4.98369026184082
aF-4.983707427978516
aF-4.983880043029785
aF-4.983989238739014
aF-5.626224994659424
aF-5.626340866088867
aF-5.626291275024414
aF-5.62627649307251
aF-6.582457542419434
aF-6.582710266113281
aF-6.877744674682617
aF-6.877969264984131
aF-4.573849678039551
aF-2.069988489151001
aF-2.070056676864624
aF-0.6887800693511963
aF-0.6888293027877808
aF-0.6889919638633728
aF0.8439788222312927
aF0.843887448310852
aF2.3980796337127686
aF2.39792537689209
aF2.397711992263794
aF3.5906176567077637
aF3.5905656814575195
aF3.590579032897949
aF3.5903782844543457
aF4.983942031860352
aF4.984093189239502
aF4.98386287689209
aF5.626214981079102
aF5.62606143951416
aF6.582516670227051
aF11.010662078857422
aF10.34897232055664
aF10.348719596862793
aF10.348644256591797
aF9.408408164978027
aF8.849308013916016
aF8.849157333374023
aF8.84890365600586
aF7.587031364440918
aF5.151176452636719
aF5.151189804077148
aF5.150821685791016
aF3.8785552978515625
aF3.878295660018921
aF3.877974271774292
aF2.2979366779327393
aF2.2978179454803467
aF2.2975080013275146
aF2.297459840774536
aF2.297292947769165
aF0.8300208449363708
aF0.829918384552002
aF0.8297549486160278
aF-0.7415604591369629
aF-0.7416861057281494
aF-0.7416837215423584
aF-0.7420710325241089
aF-2.323573589324951
aF-2.3235533237457275
aF-2.3239526748657227
aF-3.7210028171539307
aF-3.721073627471924
aF-5.269155502319336
aF-5.2691650390625
aF-5.269790172576904
aF-7.78788948059082
aF-7.788078308105469
aF-7.788167476654053
aF-7.788193225860596
aF-8.558402061462402
aF-8.55859375
aF-9.67585563659668
aF-10.024434089660645
aF-10.024511337280273
aF-10.779383659362793
aF-10.77956771850586
aF-11.010396957397461
aF-11.010242462158203
aF-10.467550277709961
aF-8.84913158416748
aF-8.849103927612305
aF-7.586953163146973
aF-7.587088584899902
aF-6.632558822631836
aF-3.87835955619812
aF-3.8784425258636475
aF-3.8784873485565186
aF-2.297722101211548
aF2.3237340450286865
aF2.3237011432647705
aF2.3237929344177246
aF3.721167802810669
aF5.269191741943359
aF6.3991193771362305
aF6.3989644050598145
aF6.3988566398620605
aF7.7881574630737305
aF8.558612823486328
aF8.55836009979248
aF8.55838680267334
aF9.676010131835938
aF9.675593376159668
aF10.024395942687988
aF10.779938697814941
aF10.67850112915039
aF15.796730995178223
aF15.207839012145996
aF15.20754623413086
aF15.207393646240234
aF14.303106307983398
aF13.857234954833984
aF12.71181583404541
aF11.973912239074707
aF11.973854064941406
aF11.973466873168945
aF10.631990432739258
aF9.63072395324707
aF9.630756378173828
aF9.630245208740234
aF8.143482208251953
aF6.91715669631958
aF6.916978359222412
aF5.342400550842285
aF5.342370510101318
aF5.3420233726501465
aF3.938267707824707
aF3.9381957054138184
aF3.938128709793091
aF2.3355672359466553
aF2.335176467895508
aF2.3350889682769775
aF0.8213504552841187
aF0.8210188746452332
aF-0.7606015205383301
aF-0.7607718110084534
aF-0.7607667446136475
aF-0.7610947489738464
aF-0.7611290812492371
aF-2.3537521362304688
aF-2.354008913040161
aF-2.3540687561035156
aF-3.8282668590545654
aF-3.8280768394470215
aF-5.424583435058594
aF-5.424714088439941
aF-5.424853324890137
aF-5.425369739532471
aF-6.747800350189209
aF-6.747905254364014
aF-8.287137985229492
aF-8.28759765625
aF-8.287403106689453
aF-8.287773132324219
aF-8.287931442260742
aF-9.408858299255371
aF-9.408878326416016
aF-9.409048080444336
aF-9.409049987792969
aF-10.831413269042969
aF-10.831716537475586
aF-10.831528663635254
aF-10.831733703613281
aF-10.831891059875488
aF-11.708133697509766
aF-11.708235740661621
aF-12.959132194519043
aF-12.95940113067627
aF-12.959440231323242
aF-13.557378768920898
aF-13.55749797821045
aF-14.588845252990723
aF-15.641897201538086
aF-15.641947746276855
aF-16.12650489807129
aF-14.30322265625
aF-12.71174144744873
aF-12.71176815032959
aF-10.631893157958984
aF-6.91719913482666
aF-6.917160511016846
aF-5.342113018035889
aF-5.342135906219482
aF-2.3352725505828857
aF0.761048436164856
aF3.828315496444702
aF3.8282527923583984
aF3.828362226486206
aF5.425205707550049
aF6.748241424560547
aF8.287839889526367
aF8.287798881530762
aF9.409134864807129
aF10.831939697265625
aF11.70810317993164
aF11.707990646362305
aF12.959577560424805
aF13.557515144348145
aF14.588912010192871
aF14.885525703430176
aF15.658677101135254
aF15.658538818359375
aF16.12647819519043
aF7.800699234008789
aF3.7098028659820557
aF1.6335039138793945
aF-7.294381141662598
aF-7.759088039398193
aF0.575497567653656
aF7.294846057891846
aF9.764832496643066
aF-12.482773780822754
aF9.127788543701172
aF9.745023727416992
aF10.618760108947754
aF12.646081924438477
aF1.6332577466964722
aF-7.759383201599121
aF0.5757850408554077
aF3.700308084487915
aF7.627152919769287
aF12.65147590637207
aF7.349452018737793
aF6.121006965637207
aF1.650296926498413
aF0.7379129528999329
aF-3.9246184825897217
aF-11.748130798339844
aF-12.07907772064209
aF-12.645758628845215
aF-12.482871055603027
aF-3.9524457454681396
aF-3.0711255073547363
aF0.7089238166809082
aF7.3261847496032715
aF9.12804126739502
aF9.745331764221191
aF5.4754719734191895
aF-3.7001419067382812
aF-6.239740371704102
aF-6.836508274078369
aF0.5767654180526733
aF2.738309860229492
aF3.7009496688842773
aF6.836758136749268
aF7.296126842498779
aF11.759119987487793
aF11.11683177947998
aF-0.7086622714996338
aF-5.27470588684082
aF-9.128132820129395
aF-11.748496055603027
aF-12.477415084838867
aF-12.78262710571289
aF-12.782125473022461
aF-12.651808738708496
aF-9.763751029968262
aF-1.649622917175293
aF7.32678747177124
aF8.057909965515137
aF10.619690895080566
aF11.102059364318848
aF12.47825813293457
aF12.646627426147461
aF-1.6102523803710938
aF-4.677748203277588
aF-5.490132808685303
aF-6.238969326019287
aF-6.83546257019043
aF-7.626968860626221
aF-7.759469985961914
aF-6.816679000854492
aF-2.781538248062134
aF4.67695951461792
aF5.4893670082092285
aF9.763739585876465
aF9.146408081054688
aF1.6492265462875366
aF0.7368892431259155
aF-0.7094141244888306
aF-1.621762990951538
aF-10.619068145751953
aF-11.101383209228516
aF5.274293422698975
aF6.094509601593018
aF7.3257036209106445
aF8.056861877441406
aF9.127442359924316
aF9.744657516479492
aF10.61837100982666
aF12.476849555969238
aF12.645195960998535
aF7.341166019439697
aF6.815535545349121
aF2.780606985092163
aF-7.627458095550537
aF-6.817265510559082
aF-6.290246963500977
aF-3.7103304862976074
aF-2.7817909717559814
aF0.5745341181755066
aF1.6092374324798584
aF2.7365074157714844
aF4.676843166351318
aF5.489254474639893
aF9.146278381347656
aF-9.745492935180664
aF-10.61923885345459
aF-11.101500511169434
aF-11.748581886291504
aF-12.482946395874023
aF3.924481153488159
aF5.274194240570068
aF6.094400882720947
aF7.3255181312561035
aF9.127348899841309
aF9.744600296020508
aF10.618247032165527
aF11.100452423095703
aF11.747517585754395
aF12.47666072845459
aF5.479537010192871
aF4.72142219543457
aF3.7069485187530518
aF-1.6093552112579346
aF-5.490304946899414
aF-6.2409539222717285
aF-7.762520790100098
aF-7.59976863861084
aF0.5735034346580505
aF1.6083457469940186
aF2.735563039779663
aF6.835549354553223
aF-9.129382133483887
aF-9.746353149414062
aF-10.620268821716309
aF-11.102357864379883
aF-12.652518272399902
aF-11.75918960571289
aF-0.738079845905304
aF8.056806564331055
aF12.078472137451172
aF2.9388206005096436
aF1.9060213565826416
aF1.9056861400604248
aF1.9052740335464478
aF-0.7513902187347412
aF-2.9388155937194824
aF-1.9052972793579102
aF-0.7972350716590881
aF3.5929036140441895
aF3.592261552810669
aF-3.590625047683716
aF-4.983663558959961
aF-4.9839935302734375
aF-6.547070503234863
aF-6.547538757324219
aF-6.547363758087158
aF-6.171744346618652
aF-5.810654640197754
aF-5.810650825500488
aF-4.573787212371826
aF-4.573764801025391
aF-3.5925920009613037
aF-2.06994891166687
aF-0.6887705326080322
aF0.8438872694969177
aF2.397974729537964
aF3.590663433074951
aF3.590674638748169
aF4.984020709991455
aF5.626271724700928
aF6.582782745361328
aF6.582913398742676
aF6.582298755645752
aF6.547457695007324
aF6.54740047454834
aF11.01060676574707
aF11.01038932800293
aF10.467201232910156
aF10.467185020446777
aF7.587162017822266
aF7.586817741394043
aF6.63273286819458
aF6.632057189941406
aF5.151062488555908
aF-5.269541263580322
aF-6.399077892303467
aF-8.558483123779297
aF-10.678537368774414
aF-10.678512573242188
aF-11.010376930236816
aF-10.4673490524292
aF-10.348810195922852
aF-8.8492431640625
aF-7.587033271789551
aF-6.632414817810059
aF-5.151002407073975
aF-2.2977166175842285
aF-0.8298892974853516
aF3.7211058139801025
aF5.269279479980469
aF5.269378185272217
aF5.269326210021973
aF6.398947238922119
aF6.398894309997559
aF7.788162708282471
aF7.787937641143799
aF9.676061630249023
aF9.676082611083984
aF9.675745964050293
aF10.024713516235352
aF10.024577140808105
aF10.024474143981934
aF10.678330421447754
aF15.796805381774902
aF15.34484577178955
aF15.344671249389648
aF15.207759857177734
aF14.303441047668457
aF12.711539268493652
aF10.632035255432129
aF-9.409032821655273
aF-11.708100318908691
aF-13.557244300842285
aF-14.885404586791992
aF-14.88591480255127
aF-15.641461372375488
aF-16.125864028930664
aF-15.796537399291992
aF-15.796893119812012
aF-15.973705291748047
aF-15.973816871643066
aF-13.856932640075684
aF-12.711703300476074
aF-11.974019050598145
aF-9.630587577819824
aF-8.143421173095703
aF-6.917224407196045
aF-6.917160987854004
aF-5.342260360717773
aF-5.3419671058654785
aF-3.938122510910034
aF-3.9379725456237793
aF-2.335292339324951
aF0.7610533237457275
aF0.7611463665962219
aF2.3539984226226807
aF3.8281872272491455
aF6.748297691345215
aF6.748276233673096
aF8.287816047668457
aF9.409038543701172
aF9.408952713012695
aF11.708353042602539
aF12.95969295501709
aF12.959556579589844
aF14.588873863220215
aF14.885896682739258
aF14.885520935058594
aF15.658712387084961
aF15.64184856414795
aF15.642050743103027
aF16.125965118408203
aF16.125560760498047
aF5.485668659210205
aF4.726959228515625
aF-3.709329605102539
aF-0.6100192070007324
aF5.490182876586914
aF6.835474491119385
aF12.781684875488281
aF-9.127386093139648
aF-12.651288986206055
aF-6.12054967880249
aF1.6212263107299805
aF3.0435333251953125
aF3.9248383045196533
aF7.32594633102417
aF8.05711555480957
aF11.748252868652344
aF12.079355239868164
aF12.477730751037598
aF4.726498603820801
aF-4.6776652336120605
aF-5.484930992126465
aF-4.725939750671387
aF-0.6094973087310791
aF6.83574914932251
aF12.782099723815918
aF8.08061695098877
aF-6.094626426696777
aF-9.12756633758545
aF-12.651344299316406
aF-10.633663177490234
aF-1.6498361825942993
aF-0.7374477982521057
aF11.74853801727295
aF12.4778470993042
aF12.646240234375
aF6.2819414138793945
aF-4.677364826202393
aF-0.6036942005157471
aF12.08993148803711
aF8.080684661865234
aF7.34946870803833
aF6.121042251586914
aF-12.089675903320312
aF-11.75838565826416
aF-8.079580307006836
aF-0.7372532486915588
aF0.7090968489646912
aF1.6215237379074097
aF3.043943405151367
aF9.12863540649414
aF7.341536998748779
aF-2.737535238265991
aF-3.7000679969787598
aF0.5748326182365417
aF12.088807106018066
aF8.079248428344727
aF5.299449443817139
aF-9.128189086914062
aF-11.748536109924316
aF-12.079416275024414
aF3.0433812141418457
aF3.9246814250946045
aF7.625985622406006
aF11.757484436035156
aF-9.128308296203613
aF-12.079530715942383
aF-11.115961074829102
aF-10.633634567260742
aF1.620954155921936
aF2.7783854007720947
aF-2.7364490032196045
aF-3.699535369873047
aF-4.6776227951049805
aF-7.298881530761719
aF-7.6309494972229
aF-2.7812957763671875
aF11.756691932678223
aF-0.7094236016273499
aF-8.058370590209961
aF-12.7831449508667
aF-12.484137535095215
aF-1.9053114652633667
aF-1.9054697751998901
aF2.195359706878662
aF6.878074645996094
aF6.877922534942627
aF6.877798080444336
aF6.172074794769287
aF6.172107219696045
aF6.171879291534424
aF4.57401180267334
aF4.574024200439453
aF-2.397770404815674
aF-2.3979573249816895
aF-3.5904006958007812
aF-3.590531587600708
aF-6.5827226638793945
aF-6.171746730804443
aF-4.574021816253662
aF-3.5925660133361816
aF-0.6887834668159485
aF-0.6888202428817749
aF2.3979411125183105
aF3.590797185897827
aF4.984011173248291
aF4.983933448791504
aF4.983644008636475
aF6.582789897918701
aF11.010083198547363
aF11.010403633117676
aF11.010209083557129
aF10.467594146728516
aF10.46738052368164
aF10.349102973937988
aF10.349015235900879
aF10.348934173583984
aF9.4085693359375
aF9.408620834350586
aF9.408231735229492
aF8.849544525146484
aF8.849504470825195
aF8.849092483520508
aF6.632647514343262
aF5.151360034942627
aF0.8296288847923279
aF-0.7420256733894348
aF-2.3234100341796875
aF-2.324064016342163
aF-5.269289016723633
aF-7.787961006164551
aF-9.676025390625
aF-9.676180839538574
aF-10.349189758300781
aF-10.348875999450684
aF-2.2977914810180664
aF-0.8299971222877502
aF-0.8300204873085022
aF2.323803424835205
aF3.7211344242095947
aF5.26931095123291
aF5.269402980804443
aF6.398988246917725
aF7.788059234619141
aF7.788176536560059
aF7.78811502456665
aF8.558804512023926
aF9.675915718078613
aF10.780183792114258
aF10.780061721801758
aF10.779786109924316
aF10.678668022155762
aF15.79716968536377
aF15.796998023986816
aF15.796574592590332
aF15.796770095825195
aF15.973751068115234
aF15.974074363708496
aF15.973453521728516
aF15.345155715942383
aF15.344758033752441
aF15.207192420959473
aF13.856910705566406
aF10.632072448730469
aF9.630817413330078
aF6.917022705078125
aF0.8212244510650635
aF-0.7613670229911804
aF-2.3543405532836914
aF-5.425237655639648
aF-8.28791618347168
aF-11.708118438720703
aF-11.708151817321777
aF-12.959537506103516
aF-12.959500312805176
aF-13.557804107666016
aF-14.58923625946045
aF-14.589430809020996
aF-14.885692596435547
aF-15.658241271972656
aF-15.658693313598633
aF-15.658722877502441
aF-15.658733367919922
aF-15.344904899597168
aF-13.857122421264648
aF-5.34197473526001
aF-5.342036724090576
aF-2.3352792263031006
aF5.425102233886719
aF6.748378753662109
aF6.7483954429626465
aF6.748203277587891
aF8.287822723388672
aF8.28765869140625
aF9.409114837646484
aF9.408982276916504
aF10.831872940063477
aF10.832141876220703
aF10.831623077392578
aF12.959579467773438
aF12.959660530090332
aF12.959774017333984
aF13.557536125183105
aF13.557418823242188
aF14.58962345123291
aF14.589381217956543
aF14.885409355163574
aF15.642003059387207
aF16.12608528137207
aF16.12541389465332
aF6.816920280456543
aF6.289588451385498
aF12.651235580444336
aF12.48294448852539
aF12.089820861816406
aF11.758849143981934
aF11.116687774658203
aF10.634366989135742
aF5.300656795501709
aF-9.744694709777832
aF-3.0712180137634277
aF0.7088284492492676
aF6.28909969329834
aF-3.699986696243286
aF-3.7086544036865234
aF12.782186508178711
aF12.483176231384277
aF11.759037017822266
aF11.11677074432373
aF10.634472846984863
aF9.764981269836426
aF9.147770881652832
aF5.300806999206543
aF-8.079926490783691
aF-7.348784446716309
aF-6.120451927185059
aF-5.300204277038574
aF11.101448059082031
aF4.717275142669678
aF-4.721106052398682
aF9.765114784240723
aF9.147881507873535
aF5.30082368850708
aF-7.3484368324279785
aF-6.120192527770996
aF-5.3000311851501465
aF3.9252514839172363
aF6.095326900482178
aF-7.294816970825195
aF-7.800478458404541
aF6.238167762756348
aF7.625923156738281
aF12.650297164916992
aF11.11551570892334
aF10.633187294006348
aF-3.044004201889038
aF-7.326387882232666
aF-8.057538032531738
aF-12.089442253112793
aF-11.758424758911133
aF-11.116012573242188
aF-9.764233589172363
aF-3.952489137649536
aF11.100689888000488
aF11.747674942016602
aF12.078587532043457
aF6.288300514221191
aF4.725848197937012
aF6.834608554840088
aF-12.089539527893066
aF-11.758390426635742
aF-9.764222145080566
aF-9.14704704284668
aF-3.071354866027832
aF-1.6501201391220093
aF-0.7377859354019165
aF8.056682586669922
aF12.078465461730957
aF7.757210731506348
aF7.797802925109863
aF7.338158130645752
aF7.627709865570068
aF-1.6217474937438965
aF-3.043987989425659
aF-3.925205707550049
aF-5.275239944458008
aF-6.095418930053711
aF-12.646623611450195
aF-12.783384323120117
aF-12.090433120727539
aF-11.11577033996582
aF-10.633523941040039
aF-9.764349937438965
aF-9.147107124328613
aF-3.9529309272766113
aF-3.071669340133667
aF11.100772857666016
aF-0.7508939504623413
aF6.171860694885254
aF5.810425281524658
aF2.070225477218628
aF-3.5904462337493896
aF-6.877772331237793
aF-6.877720832824707
aF9.408567428588867
aF7.58682918548584
aF2.2977731227874756
aF-9.676010131835938
aF-11.010409355163574
aF-11.010499954223633
aF-10.467336654663086
aF-10.467469215393066
aF-9.408190727233887
aF10.67861557006836
aF14.303338050842285
aF13.856438636779785
aF10.63237476348877
aF8.14365291595459
aF3.9378607273101807
aF2.3354179859161377
aF2.334970712661743
aF-5.4249067306518555
aF-15.641864776611328
aF-14.30320930480957
aF8.28787612915039
aF11.708263397216797
aF14.885857582092285
aF15.641497611999512
aF16.125566482543945
aF6.816375732421875
aF0.6101576685905457
aF-0.5753389596939087
aF-6.239023208618164
aF-8.057000160217285
aF-12.782058715820312
aF-12.78203010559082
aF7.33803129196167
aF-9.745281219482422
aF-12.645753860473633
aF4.726179599761963
aF12.780652046203613
aF-12.646035194396973
aF-12.782504081726074
aF-12.782206535339355
aF-12.6511812210083
aF7.293965816497803
aF-12.47788143157959
aF-12.646145820617676
aF-12.78266716003418
aF-12.78245735168457
aF-12.65141487121582
aF-5.300309181213379
aF-3.9526419639587402
aF12.779546737670898
aF-12.478391647338867
aF-8.080057144165039
aF-7.348902225494385
aF9.744783401489258
aF12.64498233795166
aF5.810932636260986
aF-0.8436762690544128
aF-0.8437924385070801
aF-2.3981943130493164
aF-3.5908548831939697
aF-6.582642078399658
aF-6.87746524810791
aF-5.810506820678711
aF-4.573919296264648
aF-3.5925803184509277
aF-3.5926194190979004
aF-3.59261417388916
aF-0.6887951493263245
aF5.626214027404785
aF10.46772289276123
aF9.408214569091797
aF5.150711536407471
aF0.8303400278091431
aF0.8301520943641663
aF-2.323645830154419
aF-5.269556522369385
aF-6.399280071258545
aF-7.788261413574219
aF-7.78833532333374
aF-8.558711051940918
aF-9.675915718078613
aF-10.678804397583008
aF-9.408194541931152
aF-7.587095737457275
aF-6.632580757141113
aF-6.632559776306152
aF-6.632562160491943
aF-5.15101957321167
aF-5.151096343994141
aF-3.8784446716308594
aF-3.8784055709838867
aF2.3237855434417725
aF3.721031904220581
aF10.678607940673828
aF15.20764446258545
aF13.857110977172852
aF12.71181869506836
aF8.14313793182373
aF6.917532444000244
aF2.3354129791259766
aF0.8212552666664124
aF-3.827812910079956
aF-6.748570919036865
aF-9.409337997436523
aF-10.83188247680664
aF-11.708280563354492
aF-11.708328247070312
aF-14.885587692260742
aF-14.303069114685059
aF-14.303060531616211
aF-13.856881141662598
aF-11.974034309387207
aF-10.63192081451416
aF-9.630511283874512
aF-9.630683898925781
aF-9.630705833435059
aF-8.143507957458496
aF-6.917264461517334
aF-5.3420000076293945
aF-2.33549427986145
aF2.35408353805542
aF5.425063133239746
aF5.425212860107422
aF10.83159351348877
aF13.557279586791992
aF14.58934497833252
aF14.8853759765625
aF15.641576766967773
aF6.239006042480469
aF-9.147124290466309
aF11.101102828979492
aF6.239311695098877
aF5.274682998657227
aF6.8091630935668945
aF-5.275027275085449
aF-6.095230579376221
aF-12.477773666381836
aF-10.63366985321045
aF3.0704188346862793
aF-7.327232360839844
aF-11.749302864074707
aF2.939154863357544
aF6.877706527709961
aF5.8103227615356445
aF4.5742597579956055
aF0.6889269351959229
aF0.6884427666664124
aF-0.8437186479568481
aF-2.397796630859375
aF-2.3981528282165527
aF-5.625967502593994
aF-5.626009464263916
aF-6.17171573638916
aF-3.592630386352539
aF-2.0699687004089355
aF-0.6888916492462158
aF11.010405540466309
aF9.408337593078613
aF7.586722373962402
aF3.878119468688965
aF2.297940254211426
aF0.8298508524894714
aF-0.7414312958717346
aF-0.741823136806488
aF-2.3238332271575928
aF-3.7208704948425293
aF-3.7213735580444336
aF-5.269096374511719
aF-6.398900032043457
aF-7.7878570556640625
aF-8.558310508728027
aF-10.024396896362305
aF-10.467597961425781
aF-9.408358573913574
aF-7.587141036987305
aF-3.8784568309783936
aF2.323629379272461
aF10.77959156036377
aF10.678229331970215
aF15.345124244689941
aF15.345081329345703
aF14.302794456481934
aF13.856667518615723
aF13.856690406799316
aF11.973711967468262
aF8.1433687210083
aF8.143095016479492
aF5.341866970062256
aF2.335731267929077
aF0.8208611011505127
aF0.8206676840782166
aF-0.7612765431404114
aF-2.353764772415161
aF-2.354304075241089
aF-3.8286118507385254
aF-8.287796974182129
aF-8.2880220413208
aF-11.708008766174316
aF-13.557031631469727
aF-15.658763885498047
aF-15.973732948303223
aF-14.303322792053223
aF-14.303207397460938
aF-11.973623275756836
aF-10.63191032409668
aF-9.630610466003418
aF-8.143326759338379
aF0.760909914970398
aF2.3540291786193848
aF8.28763484954834
aF11.708136558532715
aF13.55745792388916
aF15.658567428588867
aF15.641658782958984
aF0.61044842004776
aF-7.325613498687744
aF-11.100951194763184
aF-11.747950553894043
aF-9.744897842407227
aF4.678589820861816
aF5.491158962249756
aF-6.094913959503174
aF-11.101444244384766
aF6.816042900085449
aF12.482004165649414
aF3.070437431335449
aF-3.925259590148926
aF-9.745368003845215
aF10.632959365844727
aF7.347934722900391
aF3.951686382293701
aF3.0703952312469482
aF0.7368786334991455
aF7.591475963592529
aF12.648818016052246
aF12.480817794799805
aF10.632452011108398
aF5.299417018890381
aF3.9516639709472656
aF-12.080236434936523
aF-6.120810508728027
aF-5.300673961639404
aF0.6890571713447571
aF0.6886236071586609
aF-5.810550689697266
aF10.349355697631836
aF7.587048053741455
aF6.63238525390625
aF5.15064001083374
aF3.8787124156951904
aF-8.558652877807617
aF-11.010461807250977
aF-9.408232688903809
aF-9.408354759216309
aF-8.849313735961914
aF-8.849124908447266
aF-7.587060928344727
aF-7.58707332611084
aF-6.6324028968811035
aF-6.632498741149902
aF-5.151046276092529
aF-2.2977406978607178
aF0.7417362332344055
aF0.7417132258415222
aF0.7417239546775818
aF15.973394393920898
aF15.344943046569824
aF15.207197189331055
aF14.303156852722168
aF14.303078651428223
aF13.856972694396973
aF12.711718559265137
aF11.973846435546875
aF10.631803512573242
aF8.143731117248535
aF5.341854095458984
aF3.9375617504119873
aF0.8206774592399597
aF-5.425184726715088
aF-9.408624649047852
aF-10.832242012023926
aF-14.5894775390625
aF-14.886503219604492
aF-15.658604621887207
aF-15.641565322875977
aF-12.711774826049805
aF-11.973978042602539
aF-11.973795890808105
aF-11.973775863647461
aF-10.631978034973145
aF-10.632102012634277
aF-9.630658149719238
aF-8.143354415893555
aF-6.917126178741455
aF-3.9380483627319336
aF-3.938035726547241
aF-3.937887668609619
aF-2.335195302963257
aF-0.8211429119110107
aF-0.8208695650100708
aF0.7612659931182861
aF3.8281748294830322
aF3.8282577991485596
aF6.748306751251221
aF9.409064292907715
aF11.708047866821289
aF12.959480285644531
aF-0.575166642665863
aF12.782052040100098
aF9.147639274597168
aF8.080471992492676
aF-0.7085168957710266
aF-10.618642807006836
aF-5.3002705574035645
aF-1.6499191522598267
aF5.274536609649658
aF-2.7374136447906494
aF12.0899658203125
aF-0.7085408568382263
aF-1.620949625968933
aF-1.6210607290267944
aF5.275120735168457
aF-1.649928092956543
aF-0.7375968098640442
aF-6.120452404022217
aF11.114635467529297
aF1.6492215394973755
aF0.7369081377983093
aF1.6206570863723755
aF14.302934646606445
aF13.857040405273438
aF8.143495559692383
aF6.917461395263672
aF6.917463779449463
aF-12.959524154663086
aF-15.641763687133789
aF-16.126102447509766
aF-16.125844955444336
aF-16.12592887878418
aF-0.8209526538848877
aF13.557599067687988
aF14.885896682739258
aF15.658445358276367
aF15.641950607299805
aF6.120868682861328
aF-3.043222665786743
aF-8.08005428314209
aF1.6502470970153809
aF0.7433499097824097
aF3.592705011367798
aF-4.573852062225342
aF-2.0699427127838135
aF3.590712785720825
aF7.587360382080078
aF7.587227821350098
aF-0.7414844036102295
aF-10.02450942993164
aF-10.779658317565918
aF-8.849444389343262
aF-7.587108612060547
aF-3.8784306049346924
aF-3.8782992362976074
aF-0.8299478888511658
aF-0.8299975395202637
aF-0.8300523161888123
aF3.7211694717407227
aF5.269484519958496
aF5.2695207595825195
aF7.788285732269287
aF8.558621406555176
aF9.675743103027344
aF11.974129676818848
aF10.631608963012695
aF-3.828494071960449
aF-12.960003852844238
aF-13.55732536315918
aF-14.589395523071289
aF-15.642288208007812
aF-16.126407623291016
aF-15.796631813049316
aF-13.85677719116211
aF-11.974063873291016
aF-10.632038116455078
aF-6.917044162750244
aF0.7608559727668762
aF2.3540637493133545
aF2.3539204597473145
aF2.3541016578674316
aF5.425183296203613
aF5.425273895263672
aF-12.078965187072754
aF-3.9525303840637207
aF6.094754219055176
aF-9.764250755310059
aF-9.147048950195312
aF10.619078636169434
aF-9.146623611450195
aF6.119691371917725
aF12.087470054626465
aF9.408576011657715
aF-2.3234922885894775
aF15.796802520751953
aF15.797354698181152
aF14.303170204162598
aF8.143194198608398
aF-3.8281803131103516
aF-6.7483673095703125
aF-13.5576171875
aF-12.71167278289795
aF0.7611703872680664
aF11.708235740661621
aF14.58938980102539
aF-3.071167230606079
aF-2.2977259159088135
aF-10.63194751739502
aF-9.630515098571777
aF-3.9383246898651123
aF3.8283166885375977
aF10.634597778320312
aF-5.269428253173828
aF10.024812698364258
aF15.973870277404785
aF9.630496978759766
aF-2.354163408279419
aF-15.65907096862793
aF-15.345004081726074
aF-8.14342212677002
aF-8.143351554870605
aF6.748303413391113
aF10.831538200378418
aF13.557263374328613
aF15.659076690673828
aF-9.764337539672852
aF0.6889500617980957
aF2.3980391025543213
aF3.7211356163024902
aF11.973587036132812
aF6.916871547698975
aF5.341805458068848
aF-11.973857879638672
aF5.425217628479004
aF5.425091743469238
aF-0.7375440001487732
aF0.8301604390144348
aF-0.8299509882926941
aF8.55825424194336
aF15.34455680847168
aF12.712102890014648
aF-14.885492324829102
aF-16.125774383544922
aF-2.3354718685150146
aF14.885875701904297
aF-7.348817825317383
aF3.043658494949341
aF-6.120370864868164
aF-5.300196170806885
aF1.6491738557815552
aF0.7086264491081238
aF3.9384214878082275
aF-14.303265571594238
aF-13.857010841369629
aF3.952924966812134
aF3.071607828140259
aF11.974196434020996
aF-9.630549430847168
aF-3.9522311687469482
aF-3.07092547416687
aF3.937673568725586
aF-6.748233795166016
aF10.83165454864502
aF-9.67570686340332
aF-11.010505676269531
aF5.34235954284668
aF3.9382996559143066
aF2.335829019546509
aF0.821392297744751
aF10.831836700439453
aF11.70815658569336
aF15.20726490020752
aF-5.425199508666992
aF-6.74807596206665
aF-14.589580535888672
aF-2.335355758666992
aF-0.8210626244544983
aF9.409214973449707
aF16.1260986328125
aF3.9517126083374023
aF-12.711715698242188
aF-0.8211213946342468
aF6.5470662117004395
aF-2.297670602798462
aF-15.207366943359375
aF9.63012409210205
aF9.63090705871582
aF-15.344930648803711
aF-2.3537237644195557
aF3.828303813934326
aF-0.8300586342811584
aF-2.335477113723755
aF-0.820853590965271
aF12.95991325378418
aF-14.885819435119629
aF-8.558189392089844
aF-0.7607883214950562
aF-15.207571029663086
aF8.287690162658691
aF-3.9378604888916016
aa(lp2
F0.8386077880859375
aF0.8383669257164001
aF0.8381422758102417
aF0.8381302356719971
aF1.9675625562667847
aF1.9673234224319458
aF1.9674841165542603
aF1.9674677848815918
aF3.178027868270874
aF3.177854061126709
aF3.177593231201172
aF3.17769193649292
aF3.1776514053344727
aF3.177732467651367
aF3.17769455909729
aF2.6335947513580322
aF2.633899211883545
aF2.633848190307617
aF2.633774757385254
aF2.125735282897949
aF2.1260948181152344
aF2.1262364387512207
aF2.126121997833252
aF2.1261184215545654
aF0.6662958860397339
aF0.6659144759178162
aF0.6665686964988708
aF0.6665774583816528
aF0.6665756702423096
aF0.6661732792854309
aF-0.8381035923957825
aF-0.8381212949752808
aF-0.8379692435264587
aF-0.8379668593406677
aF-0.8379450440406799
aF-0.8378443121910095
aF-1.96747887134552
aF-1.9672731161117554
aF-1.9672322273254395
aF-1.9671149253845215
aF-1.9669411182403564
aF-3.177603006362915
aF-3.1774158477783203
aF-3.1774961948394775
aF-3.177428960800171
aF-3.177288770675659
aF-2.6335535049438477
aF-2.633526563644409
aF-2.6336510181427
aF-2.633654832839966
aF-2.6335203647613525
aF-2.6332786083221436
aF-2.125516176223755
aF-2.125880002975464
aF-2.1260499954223633
aF-2.1258773803710938
aF-0.6665272116661072
aF-0.665865421295166
aF-0.6661669015884399
aF-0.6663984060287476
aF-0.6663014888763428
aF-0.6661624312400818
aF-0.6660929918289185
aF0.889927864074707
aF0.8901002407073975
aF2.2744357585906982
aF2.2744038105010986
aF2.2745683193206787
aF2.274531126022339
aF3.785933494567871
aF4.72694206237793
aF4.72711181640625
aF4.727118968963623
aF5.932088851928711
aF5.932550430297852
aF6.243844509124756
aF6.243460178375244
aF6.243330478668213
aF6.243518352508545
aF6.243561744689941
aF6.523337364196777
aF6.507523059844971
aF5.511064529418945
aF4.8224921226501465
aF4.822534561157227
aF3.4071927070617676
aF0.6289271712303162
aF-0.8896976113319397
aF-0.8897400498390198
aF-0.8897556662559509
aF-2.2742714881896973
aF-2.274125099182129
aF-2.2742106914520264
aF-2.2742598056793213
aF-2.274266004562378
aF-3.785776138305664
aF-3.785912275314331
aF-3.7858126163482666
aF-3.785615921020508
aF-4.726870536804199
aF-4.726733684539795
aF-5.931940078735352
aF-5.931694030761719
aF-6.243215084075928
aF-6.243100643157959
aF-6.242862224578857
aF-6.5230326652526855
aF-6.523216247558594
aF-6.523107051849365
aF-6.522934436798096
aF-6.52271842956543
aF-6.507223606109619
aF-6.507037162780762
aF-4.822183609008789
aF-3.4071905612945557
aF-3.4070699214935303
aF-3.4069933891296387
aF-3.4067656993865967
aF-2.1823954582214355
aF-2.1822426319122314
aF-2.182267904281616
aF-0.6281561255455017
aF-0.628683865070343
aF-0.6287211179733276
aF-0.6285660266876221
aF-0.6284085512161255
aF0.7646875381469727
aF2.2545015811920166
aF2.2546284198760986
aF2.2546708583831787
aF6.595847129821777
aF6.596197128295898
aF8.822026252746582
aF8.821840286254883
aF8.821911811828613
aF8.822029113769531
aF9.38726806640625
aF10.333128929138184
aF10.333072662353516
aF10.458230018615723
aF10.040246963500977
aF10.040162086486816
aF10.04017448425293
aF10.040091514587402
aF8.585065841674805
aF6.434409141540527
aF5.309413909912109
aF5.3096489906311035
aF2.3683929443359375
aF0.7860379815101624
aF-0.7643721699714661
aF-2.254309892654419
aF-2.2544445991516113
aF-2.25441312789917
aF-3.8356242179870605
aF-3.8354132175445557
aF-3.835724115371704
aF-3.8356103897094727
aF-3.83558988571167
aF-5.112144470214844
aF-5.112124443054199
aF-5.111989498138428
aF-6.5958709716796875
aF-6.5959930419921875
aF-8.821846961975098
aF-10.458032608032227
aF-10.457695007324219
aF-10.681557655334473
aF-10.68183708190918
aF-10.681661605834961
aF-10.681620597839355
aF-10.681303024291992
aF-10.78954792022705
aF-10.789633750915527
aF-10.039725303649902
aF-8.584832191467285
aF-7.82026481628418
aF-6.434112071990967
aF-5.309518337249756
aF-3.762605905532837
aF-3.7624077796936035
aF-3.7623753547668457
aF-2.368288516998291
aF-2.368304967880249
aF-2.368121862411499
aF-0.7858249545097351
aF-0.7857951521873474
aF2.354152202606201
aF2.3541905879974365
aF2.3544812202453613
aF9.409162521362305
aF9.409550666809082
aF11.70833969116211
aF11.708944320678711
aF12.959545135498047
aF14.589638710021973
aF14.885931968688965
aF15.345128059387207
aF14.303053855895996
aF14.303152084350586
aF12.71195125579834
aF11.973793029785156
aF9.630485534667969
aF8.143431663513184
aF6.917281627655029
aF6.917201042175293
aF5.341711521148682
aF3.9382286071777344
aF2.3354458808898926
aF0.807223379611969
aF-0.7612789273262024
aF-2.354210376739502
aF-3.8285129070281982
aF-5.425299644470215
aF-5.425354480743408
aF-6.748168468475342
aF-8.287726402282715
aF-8.287859916687012
aF-8.287713050842285
aF-9.409303665161133
aF-11.708560943603516
aF-13.557376861572266
aF-13.5573091506958
aF-14.589574813842773
aF-14.885875701904297
aF-15.658523559570312
aF-16.396028518676758
aF-15.796564102172852
aF-15.973820686340332
aF-15.973556518554688
aF-12.711798667907715
aF-8.143190383911133
aF-6.917078971862793
aF-6.916723251342773
aF-3.937934398651123
aF-3.9377002716064453
aF-2.3352348804473877
aF-0.8072972297668457
aF1.6743687391281128
aF2.6832220554351807
aF7.306309223175049
aF7.649719715118408
aF7.280564308166504
aF6.885979652404785
aF6.2141852378845215
aF5.564437389373779
aF4.644521713256836
aF3.792311429977417
aF1.7128921747207642
aF-0.5051201581954956
aF-1.673426866531372
aF-2.682265281677246
aF-3.7455458641052246
aF-4.64208459854126
aF-5.514260768890381
aF-6.225872039794922
aF-7.305120944976807
aF-7.604117393493652
aF-7.648745536804199
aF-7.279660224914551
aF-6.885108470916748
aF-6.213387489318848
aF-1.7120405435562134
aF10.468254089355469
aF12.68441390991211
aF12.768952369689941
aF11.653003692626953
aF2.8133087158203125
aF1.9126131534576416
aF0.4726777970790863
aF-0.4436030983924866
aF-4.176687717437744
aF-5.031108379364014
aF-6.326955795288086
aF-7.106010913848877
aF-0.5326871275901794
aF0.5067315101623535
aF1.675088882446289
aF2.6838862895965576
aF5.515730381011963
aF6.837614059448242
aF7.306694984436035
aF7.6498823165893555
aF5.5646538734436035
aF3.7926785945892334
aF2.6990180015563965
aF1.71310555934906
aF-0.505166232585907
aF-1.6735260486602783
aF-2.6823816299438477
aF-3.745697021484375
aF-4.642188549041748
aF-7.304887771606445
aF-7.603676795959473
aF-7.648645877838135
aF-7.279474258422852
aF-6.213228225708008
aF-5.563487529754639
aF-2.6974713802337646
aF12.16576099395752
aF12.416522026062012
aF11.653082847595215
aF10.485455513000488
aF7.130784034729004
aF6.3516740798950195
aF2.8131322860717773
aF-4.176863670349121
aF-5.031291961669922
aF-6.3270745277404785
aF-4.202890872955322
aF-0.5264111161231995
aF0.5120677351951599
aF1.6802446842193604
aF6.83795166015625
aF7.307245254516602
aF7.606107234954834
aF7.795004844665527
aF7.757076263427734
aF7.65015983581543
aF7.281712055206299
aF5.569675922393799
aF2.7083206176757812
aF1.7217286825180054
aF0.5386363863945007
aF-0.5016348361968994
aF-1.6710078716278076
aF-2.680098056793213
aF-3.744019031524658
aF-4.640544891357422
aF-5.514273643493652
aF-6.835135459899902
aF-7.303717136383057
aF-7.600955963134766
aF-7.647797584533691
aF-4.6434478759765625
aF-1.7106106281280518
aF-0.4712282717227936
aF0.44506609439849854
aF1.8855454921722412
aF12.166131019592285
aF12.416925430297852
aF12.4244384765625
aF12.173524856567383
aF10.485982894897461
aF9.93347454071045
aF7.130667209625244
aF4.203341960906982
aF-2.785334348678589
aF-6.327010631561279
aF-7.105983734130859
aF-8.282408714294434
aF-5.056912899017334
aF-4.202482223510742
aF-0.5340506434440613
aF0.5052379369735718
aF1.6735109090805054
aF5.514353275299072
aF6.8363542556762695
aF7.305452346801758
aF7.604554653167725
aF7.793060779571533
aF7.756629467010498
aF-1.6728883981704712
aF-2.6817550659179688
aF-4.641496658325195
aF-5.513556957244873
aF-6.225187301635742
aF-7.603765964508057
aF-7.792291164398193
aF-7.648617267608643
aF-7.279656887054443
aF-6.885204315185547
aF-3.791961669921875
aF0.444365918636322
aF5.031619548797607
aF10.46785831451416
aF-2.784855842590332
aF-8.938803672790527
aF-9.915139198303223
aF-10.467253684997559
aF-12.68577766418457
aF-0.5340632200241089
aF0.5052977204322815
aF1.6735912561416626
aF5.514328956604004
aF6.836339473724365
aF7.604681015014648
aF7.793144226074219
aF3.7935070991516113
aF2.7000768184661865
aF0.5352699756622314
aF-0.5041627287864685
aF-1.6724853515625
aF-2.681353807449341
aF-5.5132551193237305
aF-6.224956512451172
aF-7.603702068328857
aF-7.7923359870910645
aF-6.885534763336182
aF-4.644792556762695
aF-0.4717923402786255
aF0.44433164596557617
aF11.231307029724121
aF11.639739036560059
aF-9.91480541229248
aF-10.466894149780273
aF-12.42260456085205
aF-1.9117212295532227
aF3.7475297451019287
aF4.643765926361084
aF7.604575157165527
aF7.793022632598877
aF7.757058620452881
aF3.7994863986968994
aF-0.5012639164924622
aF-2.6788885593414307
aF-3.7427096366882324
aF-4.639127731323242
aF-5.512763977050781
aF-6.8354811668396
aF-7.604289531707764
aF-7.7930097579956055
aF-6.8873443603515625
aF-6.21751070022583
aF-5.568114757537842
aF8.261798858642578
aF8.938977241516113
aF9.915488243103027
aF10.46756649017334
aF11.231220245361328
aF-12.68290901184082
aF-12.17179012298584
aF-11.24333667755127
aF0.8382907509803772
aF0.8382713198661804
aF1.9672999382019043
aF3.1779329776763916
aF2.633925437927246
aF2.6337027549743652
aF2.1249821186065674
aF2.12611722946167
aF2.125854730606079
aF0.666563868522644
aF0.6665542721748352
aF-0.837861180305481
aF-3.177438735961914
aF-3.1771321296691895
aF-2.633358955383301
aF-2.633195400238037
aF-2.1260476112365723
aF-2.125748634338379
aF-2.125514507293701
aF-0.665814220905304
aF0.8899782299995422
aF3.7859206199645996
aF3.786118745803833
aF4.72689151763916
aF4.727174758911133
aF5.932124614715576
aF5.932290554046631
aF6.243496417999268
aF6.24354887008667
aF7.172151565551758
aF7.172308921813965
aF7.172357082366943
aF6.523163318634033
aF6.523285865783691
aF6.52321720123291
aF6.507370471954346
aF5.510948181152344
aF5.511070728302002
aF4.822389602661133
aF4.822534084320068
aF4.822575092315674
aF4.822700500488281
aF3.4074928760528564
aF3.407445192337036
aF3.407458782196045
aF3.4074110984802246
aF2.182426929473877
aF2.182626962661743
aF-0.889664888381958
aF-0.8897578120231628
aF-4.726850986480713
aF-6.243113040924072
aF-6.2430877685546875
aF-7.172059535980225
aF-7.171916484832764
aF-7.171820640563965
aF-6.522853374481201
aF-6.523078441619873
aF-6.507471084594727
aF-6.507201194763184
aF-6.506879806518555
aF-5.510940074920654
aF-5.510744094848633
aF-5.510703086853027
aF-5.510435104370117
aF-4.822347164154053
aF-4.822624206542969
aF-4.822269916534424
aF-3.4072327613830566
aF-3.407182455062866
aF-2.182115077972412
aF0.7646995186805725
aF3.8356449604034424
aF3.8357126712799072
aF3.836015224456787
aF5.112344264984131
aF6.595878601074219
aF6.595856666564941
aF6.596299171447754
aF7.555601596832275
aF9.387144088745117
aF9.387238502502441
aF9.38741683959961
aF10.333344459533691
aF10.333368301391602
aF10.333242416381836
aF10.458078384399414
aF10.4581937789917
aF10.45809268951416
aF10.458263397216797
aF10.458292007446289
aF11.27647876739502
aF11.276488304138184
aF11.276673316955566
aF10.681886672973633
aF10.681839942932129
aF10.681923866271973
aF10.681829452514648
aF10.789590835571289
aF10.789348602294922
aF10.789679527282715
aF10.040153503417969
aF10.040168762207031
aF9.698031425476074
aF9.697956085205078
aF9.698004722595215
aF7.820488452911377
aF7.820479869842529
aF7.820542335510254
aF7.820511341094971
aF6.434548854827881
aF6.4346723556518555
aF5.3098673820495605
aF3.76295804977417
aF3.7626664638519287
aF2.368602991104126
aF2.368528127670288
aF-0.7645256519317627
aF-0.7644524574279785
aF-2.2543435096740723
aF-6.595848083496094
aF-6.595768451690674
aF-7.555490016937256
aF-7.55573844909668
aF-8.821953773498535
aF-10.333047866821289
aF-10.333081245422363
aF-10.332944869995117
aF-10.458052635192871
aF-10.789531707763672
aF-10.789519309997559
aF-10.789469718933105
aF-10.040016174316406
aF-9.69732666015625
aF-8.585214614868164
aF-8.58495044708252
aF-8.584661483764648
aF-7.820409297943115
aF-6.434279441833496
aF-6.43439245223999
aF-6.434185028076172
aF-5.309237003326416
aF-5.309170246124268
aF-3.7622323036193848
aF-2.368039131164551
aF-0.7857015132904053
aF0.7611202597618103
aF5.425506114959717
aF5.42519474029541
aF5.425715923309326
aF6.748469352722168
aF8.28802490234375
aF9.409421920776367
aF10.831840515136719
aF10.831844329833984
aF10.832329750061035
aF11.70859146118164
aF12.959776878356934
aF12.959928512573242
aF12.959742546081543
aF13.55746078491211
aF14.589435577392578
aF14.589567184448242
aF14.88576602935791
aF14.885807037353516
aF14.885764122009277
aF15.658811569213867
aF15.658534049987793
aF15.65860366821289
aF15.641647338867188
aF15.642082214355469
aF15.64166259765625
aF16.395891189575195
aF16.39586639404297
aF15.797211647033691
aF15.79707145690918
aF15.796777725219727
aF15.796974182128906
aF15.79688835144043
aF15.973981857299805
aF15.97376823425293
aF15.973845481872559
aF15.345198631286621
aF15.344633102416992
aF15.20729923248291
aF15.207310676574707
aF15.207341194152832
aF15.207425117492676
aF14.303200721740723
aF14.302989959716797
aF13.85718059539795
aF13.857359886169434
aF13.856908798217773
aF13.85713005065918
aF13.856804847717285
aF12.711973190307617
aF12.712126731872559
aF12.711674690246582
aF12.71178150177002
aF11.97403621673584
aF11.974261283874512
aF11.973827362060547
aF11.974043846130371
aF11.973566055297852
aF10.632057189941406
aF10.631906509399414
aF9.63078784942627
aF9.630633354187012
aF9.630374908447266
aF8.143475532531738
aF8.143418312072754
aF6.917238235473633
aF2.335334539413452
aF2.335495948791504
aF0.8073616027832031
aF-6.748542785644531
aF-9.409031867980957
aF-9.409157752990723
aF-11.708208084106445
aF-14.589567184448242
aF-14.58940315246582
aF-14.885757446289062
aF-14.885747909545898
aF-15.641493797302246
aF-15.796952247619629
aF-15.344778060913086
aF-15.344801902770996
aF-15.344655990600586
aF-15.207179069519043
aF-14.30299186706543
aF-13.857070922851562
aF-13.856602668762207
aF-12.711694717407227
aF-11.973394393920898
aF-10.631589889526367
aF-10.631345748901367
aF-9.630593299865723
aF-8.143474578857422
aF-6.91666841506958
aF-5.341655254364014
aF-3.9377827644348145
aF-3.937480926513672
aF-0.8073022365570068
aF0.5059976577758789
aF6.837186336517334
aF7.605371475219727
aF2.698662281036377
aF0.5342202186584473
aF-7.756188869476318
aF-2.697838068008423
aF8.262569427490234
aF-2.784749984741211
aF-8.959953308105469
aF-8.28271770477295
aF-7.130076885223389
aF-1.9119950532913208
aF7.605695724487305
aF0.5342550277709961
aF-7.756017684936523
aF-6.88494348526001
aF-1.7115001678466797
aF1.8850901126861572
aF10.468695640563965
aF11.232258796691895
aF12.684832572937012
aF12.769464492797852
aF12.173130989074707
aF5.05807638168335
aF4.203624725341797
aF1.9124114513397217
aF-2.7849538326263428
aF-12.164665222167969
aF-12.415366172790527
aF-12.771079063415527
aF-10.484626770019531
aF-8.959760665893555
aF-8.282548904418945
aF5.518359184265137
aF6.887208461761475
aF4.653071403503418
aF3.7997934818267822
aF-7.75493049621582
aF-7.278896808624268
aF-6.884437561035156
aF-3.7909204959869385
aF-2.6972532272338867
aF5.032550811767578
aF6.3284173011779785
aF12.772254943847656
aF11.653390884399414
aF8.960596084594727
aF5.057841777801514
aF2.812716484069824
aF0.47216129302978516
aF-0.44412732124328613
aF-1.884674310684204
aF-8.261748313903809
aF-12.683624267578125
aF-10.484770774841309
aF-9.932376861572266
aF-7.12966251373291
aF-6.350578308105469
aF-2.8118226528167725
aF-1.9111000299453735
aF7.649327278137207
aF6.214456081390381
aF5.564781665802002
aF4.6449971199035645
aF3.792847156524658
aF1.7135337591171265
aF0.5347689986228943
aF-3.74495530128479
aF-7.304601192474365
aF-6.213629245758057
aF-5.56400728225708
aF8.26235294342041
aF8.939425468444824
aF12.683856010437012
aF12.768357276916504
aF12.771150588989258
aF12.686531066894531
aF7.130667686462402
aF6.351635456085205
aF-11.651942253112793
aF-11.24347972869873
aF-10.484467506408691
aF-9.932235717773438
aF-8.959700584411621
aF-8.282471656799316
aF-7.129909515380859
aF-2.812460422515869
aF-1.9117659330368042
aF2.6824328899383545
aF3.7456586360931396
aF7.305491924285889
aF1.714219093322754
aF-3.7446329593658447
aF-4.641177177429199
aF-6.835407257080078
aF-7.304565906524658
aF-7.755902290344238
aF-7.648665904998779
aF-7.2799391746521
aF-6.214208602905273
aF-5.564522743225098
aF8.939271926879883
aF8.283395767211914
aF7.130807399749756
aF6.351747989654541
aF5.058230876922607
aF-2.7848072052001953
aF-12.171796798706055
aF-11.651844024658203
aF-11.243417739868164
aF-10.484283447265625
aF-8.959590911865234
aF-8.282441139221191
aF-7.129830360412598
aF-6.350743770599365
aF-5.057271957397461
aF-2.812422037124634
aF5.514787673950195
aF6.226583957672119
aF6.835879325866699
aF7.649941921234131
aF5.570583343505859
aF4.652631759643555
aF0.5387527346611023
aF-1.6697102785110474
aF-7.756721019744873
aF-7.649694442749023
aF-7.282027244567871
aF-3.796294689178467
aF8.961668014526367
aF8.284154891967773
aF7.1315717697143555
aF6.3523030281066895
aF-1.8841084241867065
aF-5.031177997589111
aF-12.767419815063477
aF-9.932387351989746
aF-4.202926158905029
aF0.8382638096809387
aF1.9675849676132202
aF1.967759609222412
aF1.9675887823104858
aF2.6341662406921387
aF-0.8380467891693115
aF-1.9671462774276733
aF-3.177340507507324
aF5.932562351226807
aF5.932167053222656
aF5.510959625244141
aF4.822632312774658
aF4.822474956512451
aF0.6286911964416504
aF0.6289170980453491
aF0.6288495659828186
aF-2.27415132522583
aF-3.7858400344848633
aF-3.7856929302215576
aF-4.726863861083984
aF-4.726818084716797
aF-5.931868553161621
aF-6.243151664733887
aF-7.171969890594482
aF-6.523043632507324
aF-6.507308483123779
aF-5.510702133178711
aF-5.510916709899902
aF-4.821918964385986
aF-3.4066686630249023
aF-2.182274103164673
aF-2.18241810798645
aF-2.182008981704712
aF-0.6285331845283508
aF-0.6286842226982117
aF0.7647594809532166
aF0.7648656964302063
aF2.254654884338379
aF2.2548301219940186
aF7.555715560913086
aF7.556007385253906
aF8.821900367736816
aF8.822129249572754
aF9.387124061584473
aF9.6980619430542
aF8.585037231445312
aF6.434484481811523
aF0.7862072587013245
aF0.7859880328178406
aF-0.7645679712295532
aF-2.254382848739624
aF-3.8353710174560547
aF-6.595827579498291
aF-7.555678844451904
aF-8.821601867675781
aF-9.38723373413086
aF-10.458026885986328
aF-11.275959968566895
aF-10.040040016174316
aF-9.697585105895996
aF-9.697914123535156
aF-9.697527885437012
aF-8.584836959838867
aF-8.584660530090332
aF-7.8203935623168945
aF-7.819944858551025
aF-5.309460639953613
aF-5.309390068054199
aF-5.308990955352783
aF-3.7624380588531494
aF-3.762587308883667
aF-3.7621943950653076
aF-0.7858454585075378
aF0.7613496780395508
aF3.8286125659942627
aF3.8285820484161377
aF5.425373554229736
aF6.748692989349365
aF9.409749984741211
aF11.708173751831055
aF12.711461067199707
aF10.63211441040039
aF8.143330574035645
aF5.342215061187744
aF5.341930389404297
aF2.335555076599121
aF0.8077107667922974
aF-0.761185884475708
aF-0.7612242102622986
aF-2.3541057109832764
aF-2.354320764541626
aF-8.288080215454102
aF-9.409090995788574
aF-10.831661224365234
aF-12.959450721740723
aF-13.55727481842041
aF-14.589609146118164
aF-14.589442253112793
aF-14.885631561279297
aF-14.8854341506958
aF-15.658605575561523
aF-15.658602714538574
aF-15.641456604003906
aF-15.797202110290527
aF-15.796926498413086
aF-15.973649024963379
aF-15.344887733459473
aF-14.303157806396484
aF-14.303349494934082
aF-13.856910705566406
aF-12.711389541625977
aF-12.7113618850708
aF-10.631993293762207
aF-9.630491256713867
aF-9.630239486694336
aF-6.916611194610596
aF-5.342099189758301
aF-5.341505527496338
aF-3.9379100799560547
aF-2.3352530002593994
aF-2.3351752758026123
aF-0.8073112964630127
aF-0.8072540163993835
aF5.5152716636657715
aF6.2269392013549805
aF-6.836094856262207
aF-7.792611122131348
aF-5.563697814941406
aF-3.7914717197418213
aF-0.4720532298088074
aF8.96052074432373
aF-1.8840861320495605
aF-11.231317520141602
aF-12.686457633972168
aF-12.423274040222168
aF-12.172439575195312
aF-10.484750747680664
aF-9.932467460632324
aF-5.057535648345947
aF-4.203182697296143
aF-2.8127245903015137
aF6.227386474609375
aF6.214351654052734
aF-5.514230251312256
aF-6.2258172035217285
aF-7.792209148406982
aF-3.7911999225616455
aF-0.47173091769218445
aF9.916415214538574
aF11.24467658996582
aF8.960467338562012
aF-1.8842583894729614
aF-7.10606575012207
aF-12.68364429473877
aF-12.768156051635742
aF-5.057279586791992
aF-2.8123838901519775
aF-1.9116411209106445
aF4.648141384124756
aF6.219457149505615
aF-7.789745807647705
aF4.178101062774658
aF9.916873931884766
aF10.46907901763916
aF11.232709884643555
aF-4.177288055419922
aF-5.031632423400879
aF-9.915321350097656
aF-12.768108367919922
aF-12.770918846130371
aF-12.686266899108887
aF-12.423068046569824
aF-8.959670066833496
aF2.6823437213897705
aF7.280426979064941
aF6.886014938354492
aF-7.755878925323486
aF4.177262783050537
aF9.915728569030762
aF11.639840126037598
aF8.960519790649414
aF5.058156490325928
aF4.2036871910095215
aF-12.4227933883667
aF-12.172077178955078
aF-1.7129253149032593
aF5.031494140625
aF8.960607528686523
aF4.203822612762451
aF-6.326791763305664
aF-7.10573673248291
aF-12.685601234436035
aF7.3053693771362305
aF7.2831573486328125
aF6.888608932495117
aF6.220627307891846
aF2.706266164779663
aF1.719809889793396
aF-7.3048624992370605
aF5.031064987182617
aF12.77039623260498
aF9.93403148651123
aF-0.4435650408267975
aF-2.784916639328003
aF-1.9673023223876953
aF-1.966860294342041
aF-2.1255056858062744
aF0.8904038071632385
aF0.8901200890541077
aF0.8899142146110535
aF2.2749009132385254
aF2.2746903896331787
aF2.2744410037994385
aF4.727195739746094
aF4.72703218460083
aF6.507463455200195
aF6.507404327392578
aF5.511098861694336
aF5.511231899261475
aF2.182591199874878
aF-2.274141311645508
aF-4.726579189300537
aF-5.931925296783447
aF-7.172121047973633
aF-7.172051906585693
aF-6.507219314575195
aF-5.510505199432373
aF-4.8223347663879395
aF-4.822384834289551
aF-4.821950435638428
aF-2.1819159984588623
aF0.764644205570221
aF0.7649742364883423
aF0.7650573253631592
aF2.254542827606201
aF2.2543959617614746
aF3.835864543914795
aF3.8356783390045166
aF3.835895538330078
aF5.112432479858398
aF5.112293720245361
aF5.112411975860596
aF6.5962233543396
aF6.596270561218262
aF6.596149921417236
aF8.821968078613281
aF9.387238502502441
aF11.276524543762207
aF10.681941032409668
aF10.78983211517334
aF10.789633750915527
aF9.69776439666748
aF7.820703506469727
aF5.309564590454102
aF5.309557914733887
aF-3.8354976177215576
aF-3.835538148880005
aF-10.458001136779785
aF-11.276581764221191
aF-11.276070594787598
aF-10.789337158203125
aF-10.03996753692627
aF-9.69747257232666
aF-9.697582244873047
aF-8.584807395935059
aF-7.820076942443848
aF-7.820086479187012
aF-7.820059299468994
aF-6.434619426727295
aF-5.309086322784424
aF-2.368191957473755
aF-2.3683183193206787
aF-2.3682262897491455
aF-0.7857179641723633
aF0.7611191868782043
aF0.761145293712616
aF0.761491060256958
aF0.7617342472076416
aF2.3540894985198975
aF2.3543410301208496
aF2.3544745445251465
aF3.8282809257507324
aF3.8288912773132324
aF5.425005912780762
aF8.287562370300293
aF11.708290100097656
aF12.95962142944336
aF14.58972454071045
aF16.3955078125
aF15.796947479248047
aF15.97363567352295
aF15.208047866821289
aF13.856837272644043
aF10.631816864013672
aF10.631915092468262
aF9.630389213562012
aF9.630481719970703
aF8.143552780151367
aF6.917138576507568
aF6.917098045349121
aF5.341935157775879
aF3.937929630279541
aF3.937933921813965
aF3.938016891479492
aF3.9378485679626465
aF-3.82841420173645
aF-8.287812232971191
aF-14.885862350463867
aF-14.88560962677002
aF-15.641737937927246
aF-15.207352638244629
aF-14.302816390991211
aF-14.302841186523438
aF-14.302480697631836
aF-13.856974601745605
aF-13.85626220703125
aF-12.711784362792969
aF-12.711326599121094
aF-11.97372817993164
aF-11.974056243896484
aF-11.973161697387695
aF-9.63025951385498
aF-9.629965782165527
aF-9.630158424377441
aF-8.143230438232422
aF-8.142987251281738
aF-6.917109489440918
aF-6.917004108428955
aF-5.341507911682129
aF-2.3352291584014893
aF-0.8073346614837646
aF-0.8069614171981812
aF3.7465295791625977
aF4.643126010894775
aF1.8847318887710571
aF2.785426616668701
aF4.177366256713867
aF5.031771183013916
aF6.327718734741211
aF7.106770992279053
aF11.640340805053711
aF8.283365249633789
aF-12.415390968322754
aF-12.770988464355469
aF4.643669605255127
aF6.8860673904418945
aF-6.835887432098389
aF0.44459134340286255
aF2.785792589187622
aF5.032128810882568
aF6.3279948234558105
aF7.1070637702941895
aF8.262899398803711
aF8.940064430236816
aF11.640759468078613
aF-9.915473937988281
aF-10.467660903930664
aF-11.231303215026855
aF-11.63965892791748
aF-6.350825309753418
aF6.23027229309082
aF-6.2258501052856445
aF8.263344764709473
aF8.94050121307373
aF11.641179084777832
aF-10.46744441986084
aF-11.231161117553711
aF-11.639629364013672
aF-12.172201156616211
aF-11.243696212768555
aF2.699310302734375
aF-0.5045941472053528
aF-4.644186496734619
aF-1.712667465209961
aF1.8847566843032837
aF6.327497959136963
aF7.106536388397217
aF12.423483848571777
aF10.485288619995117
aF9.932990074157715
aF-4.176726341247559
aF-5.031147003173828
aF-6.326953887939453
aF-8.261758804321289
aF-12.164207458496094
aF-6.350864887237549
aF-5.057313919067383
aF-4.202857971191406
aF4.6422319412231445
aF6.226017951965332
aF-3.792508840560913
aF-4.176651954650879
aF-5.031055450439453
aF-8.261512756347656
aF-8.938621520996094
aF-12.414651870727539
aF-12.683000564575195
aF-12.767544746398926
aF-9.932034492492676
aF-4.202854156494141
aF-0.5320875644683838
aF0.5073411464691162
aF2.6844613552093506
aF-1.7158808708190918
aF12.685973167419434
aF12.423181533813477
aF12.172359466552734
aF11.653244972229004
aF11.244702339172363
aF1.912745475769043
aF0.4727872312068939
aF-4.176774978637695
aF-6.326391696929932
aF-7.105258464813232
aF-8.261101722717285
aF-8.938162803649902
aF-12.163853645324707
aF-12.414565086364746
aF-6.351012229919434
aF2.633741855621338
aF2.2744553089141846
aF3.7859103679656982
aF6.243557453155518
aF5.510857582092285
aF-0.8896560668945312
aF-0.8896083831787109
aF5.11221981048584
aF7.5557074546813965
aF10.458054542541504
aF5.309478759765625
aF-0.7645229697227478
aF-0.7645355463027954
aF-2.2541210651397705
aF-2.2543272972106934
aF-5.111909866333008
aF-0.7858444452285767
aF6.748896598815918
aF8.288143157958984
aF11.708694458007812
aF13.557219505310059
aF15.658928871154785
aF15.641840934753418
aF15.64176082611084
aF15.207419395446777
aF2.335512638092041
aF-6.748071193695068
aF-13.856971740722656
aF-10.63180923461914
aF-5.341877460479736
aF-2.334871530532837
aF-0.8071108460426331
aF3.747150421142578
aF7.794083595275879
aF7.757321357727051
aF4.644978046417236
aF9.933213233947754
aF0.47251299023628235
aF-0.4437694549560547
aF2.68847393989563
aF8.283288955688477
aF1.9120304584503174
aF6.226025581359863
aF-0.47181349992752075
aF1.9124987125396729
aF0.4725528955459595
aF-0.4437686502933502
aF-1.8841838836669922
aF-2.698884963989258
aF2.8133456707000732
aF1.9125980138778687
aF0.472646027803421
aF-0.4436725080013275
aF-1.884096622467041
aF-11.638975143432617
aF-12.163960456848145
aF0.44421499967575073
aF2.8135311603546143
aF-9.914472579956055
aF-10.46656322479248
aF-8.282709121704102
aF-1.911813497543335
aF3.7863967418670654
aF6.523305892944336
aF6.523107051849365
aF6.507443904876709
aF5.511049747467041
aF2.182689666748047
aF-0.8898018002510071
aF-3.78580904006958
aF-4.726840972900391
aF-5.932029724121094
aF-5.932111740112305
aF-5.9318695068359375
aF-7.17230749130249
aF-3.407086133956909
aF2.2547008991241455
aF5.112570285797119
aF9.387299537658691
aF11.276723861694336
aF11.276424407958984
aF10.78953742980957
aF9.697677612304688
aF8.585176467895508
aF7.8204545974731445
aF7.820384979248047
aF6.434570789337158
aF5.309725284576416
aF0.7861315608024597
aF-5.111875534057617
aF-7.5556721687316895
aF-8.821889877319336
aF-8.821849822998047
aF-8.821785926818848
aF-9.386926651000977
aF-9.386963844299316
aF-10.333130836486816
aF-10.332988739013672
aF-10.789409637451172
aF-10.039835929870605
aF-0.7857779264450073
aF5.425068378448486
aF8.28774356842041
aF9.408978462219238
aF13.557870864868164
aF14.589407920837402
aF15.641714096069336
aF16.395795822143555
aF15.344874382019043
aF14.302813529968262
aF12.7117338180542
aF11.973538398742676
aF10.631851196289062
aF10.631643295288086
aF5.341954708099365
aF-6.748412132263184
aF-6.748197078704834
aF-8.287660598754883
aF-10.832056999206543
aF-11.708365440368652
aF-12.959482192993164
aF-12.959832191467285
aF-12.959708213806152
aF-13.557276725769043
aF-14.58966064453125
aF-14.885553359985352
aF-15.641736030578613
aF-15.973657608032227
aF-15.207653045654297
aF-15.2077054977417
aF-11.973649024963379
aF-8.143251419067383
aF-6.916539192199707
aF-5.341606140136719
aF-2.335007429122925
aF-4.643706321716309
aF-8.93902587890625
aF-6.351035118103027
aF-4.643536567687988
aF-11.652185440063477
aF3.7516074180603027
aF11.652874946594238
aF11.244403839111328
aF2.81325364112854
aF-7.105976581573486
aF12.41529369354248
aF10.486435890197754
aF5.058579921722412
aF0.8386496901512146
aF0.8901033401489258
aF3.786043882369995
aF4.7275309562683105
aF7.172192096710205
aF7.172211647033691
aF6.523406505584717
aF6.507510662078857
aF6.507569313049316
aF3.4074974060058594
aF3.407472610473633
aF-2.274054765701294
aF-5.932095527648926
aF-6.24311637878418
aF-7.171885967254639
aF0.7648621201515198
aF5.112310886383057
aF7.555940628051758
aF10.333099365234375
aF10.458208084106445
aF11.276544570922852
aF10.681923866271973
aF10.681838989257812
aF10.78963851928711
aF10.040306091308594
aF10.040181159973145
aF9.698111534118652
aF8.584994316101074
aF7.8205180168151855
aF6.43483304977417
aF3.7627742290496826
aF-2.2542941570281982
aF-5.11212682723999
aF-7.555702209472656
aF-10.333109855651855
aF-10.789041519165039
aF-2.3678746223449707
aF-0.78550785779953
aF3.8284542560577393
aF3.828331708908081
aF6.748828887939453
aF8.287908554077148
aF8.288090705871582
aF10.83195972442627
aF13.557496070861816
aF13.557268142700195
aF14.88573169708252
aF15.641724586486816
aF16.395776748657227
aF16.395553588867188
aF15.797103881835938
aF15.973875999450684
aF15.973955154418945
aF15.344982147216797
aF13.857152938842773
aF13.85708236694336
aF10.632129669189453
aF8.143614768981934
aF3.9382102489471436
aF-2.3540523052215576
aF-6.748300075531006
aF-6.748638153076172
aF-10.831660270690918
aF-11.708171844482422
aF-12.959522247314453
aF-13.557476043701172
aF-15.796789169311523
aF-15.973552703857422
aF-13.856417655944824
aF-10.631376266479492
aF-8.143207550048828
aF-3.9378535747528076
aF-2.334967851638794
aF7.793832302093506
aF10.485429763793945
aF6.351831912994385
aF5.058185577392578
aF8.283344268798828
aF-6.212806701660156
aF-5.563196659088135
aF11.244765281677246
aF6.3515496253967285
aF3.7456140518188477
aF2.7854163646698
aF12.415514945983887
aF12.172561645507812
aF8.283273696899414
aF7.10637092590332
aF10.467766761779785
aF12.164780616760254
aF12.415436744689941
aF12.768303871154785
aF1.6757055521011353
aF1.8843753337860107
aF2.7850253582000732
aF7.10590934753418
aF11.639613151550293
aF12.164581298828125
aF4.204122543334961
aF-11.230409622192383
aF-11.638855934143066
aF7.172515392303467
aF7.1722235679626465
aF-3.785764694213867
aF3.8359649181365967
aF7.555832386016846
aF8.821981430053711
aF9.387380599975586
aF10.333401679992676
aF6.434479713439941
aF-0.7644505500793457
aF-5.1118974685668945
aF-5.112070560455322
aF-6.595992565155029
aF-6.595857620239258
aF-7.5556488037109375
aF-7.555541038513184
aF-8.821667671203613
aF-8.821722030639648
aF-9.386981964111328
aF-10.458114624023438
aF-10.681736946105957
aF-10.681851387023926
aF-10.681686401367188
aF2.3541994094848633
aF3.828387975692749
aF5.425445556640625
aF6.748815536499023
aF6.748635292053223
aF8.287863731384277
aF9.409282684326172
aF10.831716537475586
aF11.708489418029785
aF13.557382583618164
aF14.885601997375488
aF15.658743858337402
aF16.39568519592285
aF15.207314491271973
aF12.711816787719727
aF11.973845481872559
aF6.917271137237549
aF5.342182636260986
aF3.9381611347198486
aF2.3354034423828125
aF-9.409062385559082
aF-10.832016944885254
aF-10.831867218017578
aF-10.832101821899414
aF-11.708250999450684
aF-11.708438873291016
aF-12.9598970413208
aF-13.557677268981934
aF-14.589303016662598
aF-15.658613204956055
aF-15.658821105957031
aF-15.658220291137695
aF-15.641799926757812
aF-16.395828247070312
aF-16.395986557006836
aF-15.797085762023926
aF-15.344328880310059
aF-15.344620704650879
aF-14.30289363861084
aF-12.711393356323242
aF-10.631518363952637
aF-9.630228996276855
aF7.757144451141357
aF0.4442560374736786
aF8.939765930175781
aF9.916067123413086
aF12.771634101867676
aF7.130906581878662
aF-11.639662742614746
aF-12.683624267578125
aF-11.652331352233887
aF7.280683517456055
aF4.177718639373779
aF12.77187442779541
aF12.6874361038208
aF12.687628746032715
aF-11.652336120605469
aF-12.683168411254883
aF-12.767725944519043
aF-11.230559349060059
aF6.326892852783203
aF12.683727264404297
aF12.768277168273926
aF-12.684971809387207
aF6.748311996459961
aF8.287909507751465
aF13.557214736938477
aF14.589476585388184
aF14.589385032653809
aF9.630389213562012
aF2.3354570865631104
aF0.8074779510498047
aF0.8075056076049805
aF0.8075729012489319
aF-16.395645141601562
aF-8.143211364746094
aF-5.342192649841309
aF-3.9378244876861572
aF-2.335188627243042
aF11.231884956359863
aF12.423927307128906
aF-9.91543197631836
aF12.685281753540039
aF12.769267082214355
aF5.932215213775635
aF-4.726863861083984
aF-6.243233680725098
aF-5.511040210723877
aF7.555899143218994
aF7.555790424346924
aF10.681838989257812
aF3.762746572494507
aF2.368494749069214
aF-6.596134185791016
aF-7.555653095245361
aF-10.332923889160156
aF-10.33271312713623
aF-11.276468276977539
aF-11.276288986206055
aF-11.276412963867188
aF-10.040055274963379
aF-9.697657585144043
aF-9.69795036315918
aF-7.820356845855713
aF-6.434432506561279
aF-5.309241771697998
aF10.831938743591309
aF11.708377838134766
aF15.344927787780762
aF9.63057804107666
aF8.143476486206055
aF6.916950702667236
aF2.335116147994995
aF0.8075025677680969
aF-0.7611384391784668
aF-8.287590026855469
aF-10.832131385803223
aF-11.708267211914062
aF-14.589444160461426
aF-15.796486854553223
aF-15.97363567352295
aF-15.973392486572266
aF-15.973422050476074
aF-15.207775115966797
aF-15.207409858703613
aF4.203765869140625
aF-12.164644241333008
aF-11.243840217590332
aF-8.261902809143066
aF-8.93909740447998
aF-7.1298651695251465
aF-8.938898086547852
aF11.231489181518555
aF4.176717758178711
aF5.1122660636901855
aF10.789515495300293
aF0.7612073421478271
aF0.7612015008926392
aF6.748303413391113
aF13.557855606079102
aF15.344816207885742
aF14.30294132232666
aF8.143353462219238
aF-9.409199714660645
aF-15.797106742858887
aF-10.631900787353516
aF-6.917162895202637
aF-12.414902687072754
aF-10.458037376403809
aF-11.708199501037598
aF-12.959691047668457
aF-15.658487319946289
aF-15.345037460327148
aF7.107524394989014
aF9.698010444641113
aF-3.76257061958313
aF2.3541359901428223
aF12.959994316101074
aF15.973784446716309
aF3.938096046447754
aF-3.828577995300293
aF-13.557034492492676
aF-13.557372093200684
aF-14.303375244140625
aF-11.973210334777832
aF-8.143393516540527
aF-3.938002109527588
aF-8.26182746887207
aF7.171838760375977
aF-6.506926536560059
aF-10.04021167755127
aF10.832035064697266
aF14.58998966217041
aF14.885865211486816
aF-10.831842422485352
aF-15.207741737365723
aF-15.207283973693848
aF-12.768218040466309
aF11.276619911193848
aF-11.276607513427734
aF-6.434001922607422
aF3.828864574432373
aF9.40941333770752
aF5.342204570770264
aF0.8072845339775085
aF-15.641623497009277
aF-5.342060089111328
aF-10.467572212219238
aF-12.423234939575195
aF-11.230899810791016
aF-11.639326095581055
aF12.6837739944458
aF-12.770272254943848
aF15.658353805541992
aF-6.748363494873047
aF-8.287778854370117
aF12.165326118469238
aF12.416081428527832
aF10.83222770690918
aF-12.95962142944336
aF-12.164566040039062
aF-12.41532039642334
aF15.658547401428223
aF14.303006172180176
aF-11.973356246948242
aF5.309427738189697
aF-0.7646467089653015
aF14.885580062866211
aF15.658812522888184
aF15.641830444335938
aF16.395801544189453
aF-11.973491668701172
aF-10.631644248962402
aF5.425437927246094
aF15.207497596740723
aF14.303232192993164
aF6.91715145111084
aF-15.64173412322998
aF-16.395767211914062
aF-12.711830139160156
aF-0.8076155781745911
aF12.16478443145752
aF-9.409051895141602
aF-16.395458221435547
aF-0.6284119486808777
aF-10.45792007446289
aF-5.425349712371826
aF12.959667205810547
aF12.959808349609375
aF-3.828402280807495
aF15.97402572631836
aF-15.344748497009277
aF-11.27631950378418
aF-15.641444206237793
aF-16.395397186279297
aF-9.630583763122559
aF5.34225606918335
aF6.434635162353516
aF15.797057151794434
aF-5.425159931182861
aF-13.856738090515137
aF-15.658723831176758
aa(lp3
F-23.44998550415039
aF-10.049919128417969
aF-3.350086212158203
aF3.34993314743042
aF-10.049952507019043
aF-3.3500192165374756
aF10.050065040588379
aF16.74986457824707
aF-23.45010757446289
aF-10.050078392028809
aF-3.3499882221221924
aF3.3498616218566895
aF10.049842834472656
aF16.74987030029297
aF23.449724197387695
aF-23.450069427490234
aF-10.04996109008789
aF-3.350013494491577
aF3.3499574661254883
aF-16.74987030029297
aF-10.049677848815918
aF-3.3500800132751465
aF3.350088357925415
aF10.049991607666016
aF-23.450002670288086
aF-16.750181198120117
aF-3.349980115890503
aF3.350069761276245
aF10.050047874450684
aF23.449804306030273
aF-23.45021629333496
aF-16.749887466430664
aF-3.3499579429626465
aF3.3499631881713867
aF10.050081253051758
aF16.749876022338867
aF-23.449907302856445
aF-3.3500099182128906
aF3.350045680999756
aF10.049882888793945
aF23.45009422302246
aF-23.45005989074707
aF-16.75020980834961
aF-10.050104141235352
aF3.3499550819396973
aF16.74993324279785
aF-23.45011329650879
aF-10.050056457519531
aF-3.3499720096588135
aF3.3499975204467773
aF10.049863815307617
aF16.749801635742188
aF-16.750123977661133
aF-10.050163269042969
aF-3.3500754833221436
aF10.049954414367676
aF-23.449913024902344
aF-16.75017738342285
aF-10.050162315368652
aF-3.350156784057617
aF3.349761962890625
aF10.049906730651855
aF16.749906539916992
aF3.3499724864959717
aF23.44975471496582
aF-3.350243330001831
aF10.049859046936035
aF16.749807357788086
aF23.449621200561523
aF-3.3503167629241943
aF-3.3501334190368652
aF10.050008773803711
aF16.749858856201172
aF-10.050036430358887
aF3.3501062393188477
aF-23.450153350830078
aF-10.050057411193848
aF-3.350006580352783
aF3.349971294403076
aF23.44991111755371
aF10.04994010925293
aF-16.749935150146484
aF-3.3499674797058105
aF10.049941062927246
aF16.749971389770508
aF-23.450075149536133
aF-16.749980926513672
aF-10.04963493347168
aF3.350137233734131
aF10.050016403198242
aF-23.449853897094727
aF-16.749448776245117
aF-3.3498222827911377
aF3.3499932289123535
aF10.05029296875
aF-10.049863815307617
aF3.350127935409546
aF10.05008316040039
aF23.450231552124023
aF3.350036144256592
aF16.749935150146484
aF-3.349940538406372
aF23.44989585876465
aF-23.450042724609375
aF3.350095748901367
aF23.449691772460938
aF-10.05007266998291
aF-3.349980592727661
aF3.349917411804199
aF16.749881744384766
aF23.449691772460938
aF3.350003242492676
aF16.749792098999023
aF10.049633979797363
aF3.3499410152435303
aF10.04980182647705
aF16.749881744384766
aF23.4494571685791
aF-3.350285291671753
aF3.3496854305267334
aF10.049878120422363
aF-23.450071334838867
aF-10.05015754699707
aF3.349804639816284
aF10.049727439880371
aF16.749576568603516
aF3.349764585494995
aF-3.3502142429351807
aF3.3498635292053223
aF10.049946784973145
aF-10.050270080566406
aF16.74962615966797
aF-23.449909210205078
aF-3.350118398666382
aF3.349942207336426
aF16.749921798706055
aF3.34993839263916
aF-10.050078392028809
aF3.349900484085083
aF-23.4498233795166
aF-23.449682235717773
aF-10.049738883972168
aF3.3500802516937256
aF16.749855041503906
aF16.75002098083496
aF10.0499849319458
aF-3.349846363067627
aF3.3499488830566406
aF-3.349971055984497
aF-3.3497984409332275
aF-23.44973373413086
aF-3.349785804748535
aF10.050337791442871
aF16.74991798400879
aF-10.049948692321777
aF-3.3498668670654297
aF3.350281000137329
aF10.050119400024414
aF16.750038146972656
aF3.35023832321167
aF10.050009727478027
aF23.45009994506836
aF-16.749828338623047
aF-3.3498668670654297
aF3.350046396255493
aF-3.3497774600982666
aF23.449939727783203
aF-16.749971389770508
aF-3.3499670028686523
aF3.349992513656616
aF16.74995994567871
aF23.449670791625977
aF-16.750179290771484
aF10.049832344055176
aF23.449838638305664
aF-23.45010757446289
aF-23.450315475463867
aF16.749910354614258
aF3.3496625423431396
aF-10.050487518310547
aF3.3496429920196533
aF10.049636840820312
aF-3.3501579761505127
aF3.349627733230591
aF10.049606323242188
aF-16.750045776367188
aF10.0497407913208
aF-10.050432205200195
aF3.3495070934295654
aF16.749544143676758
aF-16.75016975402832
aF23.44906234741211
aF-3.3502745628356934
aF23.450098037719727
aF3.3496522903442383
aF3.3499417304992676
aF3.350275993347168
aF-16.749740600585938
aF10.050126075744629
aF16.749954223632812
aF16.75016975402832
aF3.349907159805298
aF16.749826431274414
aF3.350027084350586
aF-10.049919128417969
aF3.3496809005737305
aF-3.349576950073242
aF-10.050257682800293
aF10.049872398376465
aF16.750186920166016
aF23.44971466064453
aF16.75025177001953
aF10.050337791442871
aF3.3503942489624023
aF16.750398635864258
aF-3.3497848510742188
aF3.3502113819122314
aF10.050020217895508
aF23.449787139892578
aF-3.349766731262207
aF3.3503196239471436
aF-16.74981117248535
aF-10.04983901977539
aF-16.749826431274414
aF-3.3500335216522217
aF23.44977378845215
aF3.3499248027801514
aF16.749589920043945
aF-10.050125122070312
aF10.049797058105469
aF-23.45032501220703
aF16.749679565429688
aF3.3497979640960693
aF16.749841690063477
aF-16.750213623046875
aF16.749372482299805
aF3.3492631912231445
aF3.348925828933716
aF-32.47027587890625
aF-32.27724075317383
aF-33.52777099609375
aF-31.87595558166504
aF-32.46976852416992
aF-32.276920318603516
aF-32.8700065612793
aF-32.676918029785156
aF-33.27005386352539
aF-33.07693862915039
aF-33.47740173339844
aF-31.87687110900879
aF-32.47017288208008
aF-32.27698516845703
aF-32.86951446533203
aF-32.67634201049805
aF-33.27024841308594
aF-33.07714080810547
aF-33.526939392089844
aF-34.170223236083984
aF-31.875566482543945
aF-32.46936798095703
aF-32.27627182006836
aF-32.86949920654297
aF-33.477294921875
aF-31.086456298828125
aF-32.18916702270508
aF-32.03653335571289
aF-30.489227294921875
aF-31.738550186157227
aF-31.58615493774414
aF-29.9885196685791
aF-29.835533142089844
aF-30.488422393798828
aF-30.335983276367188
aF-30.738245010375977
aF-30.585689544677734
aF-39.57180404663086
aF-39.37860107421875
aF-39.97191619873047
aF-39.778587341308594
aF-40.77240753173828
aF-41.22257614135742
aF-41.029422760009766
aF-39.376869201660156
aF-40.1776237487793
aF-40.57808303833008
aF-41.1715202331543
aF-40.97837829589844
aF-39.378108978271484
aF-39.97136306762695
aF-39.77796173095703
aF-40.37041091918945
aF-40.17680740356445
aF-41.02782440185547
aF-41.670684814453125
aF-39.376853942871094
aF-39.97005081176758
aF-40.3703498840332
aF-40.17756271362305
aF-41.171382904052734
aF-39.240291595458984
aF-39.08765411376953
aF-37.99040222167969
aF-38.240638732910156
aF-38.74039077758789
aF-38.587440490722656
aF-39.23988723754883
aF-37.98961639404297
aF-37.837032318115234
aF-38.23880386352539
aF-38.837188720703125
aF-49.091243743896484
aF-48.896785736083984
aF-49.490840911865234
aF-50.73052978515625
aF-50.538185119628906
aF-51.17741012573242
aF-50.987728118896484
aF-49.06783676147461
aF-48.87858963012695
aF-49.46937942504883
aF-49.671531677246094
aF-50.65232467651367
aF-50.45933532714844
aF-49.05977249145508
aF-48.86711883544922
aF-49.4613151550293
aF-49.2674446105957
aF-49.859458923339844
aF-49.66559600830078
aF-50.27899169921875
aF-50.739166259765625
aF-50.54310989379883
aF-51.18832015991211
aF-48.87857437133789
aF-50.273807525634766
aF-50.483463287353516
aF-46.988067626953125
aF-46.836483001708984
aF-47.23944854736328
aF-48.74116134643555
aF-48.58858108520508
aF-47.24279022216797
aF-47.09001541137695
aF-47.74555969238281
aF-47.592063903808594
aF-48.243709564208984
aF-48.33991622924805
aF-47.09050369262695
aF-47.73746871948242
aF-47.58472442626953
aF-47.84064483642578
aF-48.49262237548828
aF-48.34018325805664
aF32.0681037902832
aF31.87480354309082
aF32.46805953979492
aF33.26858901977539
aF33.71885681152344
aF33.52571487426758
aF34.169029235839844
aF33.975975036621094
aF32.06742477416992
aF32.46968460083008
aF32.276573181152344
aF32.675697326660156
aF33.26911163330078
aF33.075965881347656
aF34.16893005371094
aF33.975746154785156
aF31.873960494995117
aF32.467708587646484
aF32.27480697631836
aF33.07513427734375
aF29.834402084350586
aF30.33489227294922
aF31.085084915161133
aF30.085952758789062
aF30.83571434020996
aF31.23845100402832
aF31.085704803466797
aF29.835054397583008
aF39.56849670410156
aF39.37500762939453
aF39.96816635131836
aF40.76908874511719
aF41.21905517578125
aF41.669246673583984
aF41.476253509521484
aF40.57561492919922
aF41.16978454589844
aF39.56907272338867
aF39.37590408325195
aF39.96930694580078
aF39.77595520019531
aF40.76813888549805
aF40.57534408569336
aF41.66836929321289
aF41.47555160522461
aF39.77438735961914
aF40.76862335205078
aF37.4839973449707
aF37.33289337158203
aF38.9872932434082
aF38.83477783203125
aF38.73801040649414
aF38.58525085449219
aF37.738094329833984
aF39.0852165222168
aF49.87753677368164
aF49.68404006958008
aF51.171085357666016
aF50.98307800292969
aF49.057315826416016
aF50.07220458984375
aF48.86902618408203
aF49.26827621459961
aF49.85945129394531
aF49.66402053833008
aF50.26522445678711
aF50.719154357910156
aF51.17105484008789
aF50.97983932495117
aF49.27094268798828
aF49.863197326660156
aF49.671485900878906
aF47.98466491699219
aF47.83241271972656
aF48.23653030395508
aF48.083553314208984
aF48.48646545410156
aF49.18795394897461
aF47.08591842651367
aF47.3365364074707
aF16.749910354614258
aF23.450040817260742
aF3.3498969078063965
aF-16.750024795532227
aF10.049976348876953
aF16.74994468688965
aF-23.449769973754883
aF16.750030517578125
aF23.44989585876465
aF-10.050176620483398
aF16.75012969970703
aF23.45028305053711
aF-3.3500516414642334
aF23.449722290039062
aF-16.75011444091797
aF23.449676513671875
aF3.349968433380127
aF16.749967575073242
aF23.449644088745117
aF23.449689865112305
aF10.04970932006836
aF3.349846124649048
aF23.449695587158203
aF3.3499369621276855
aF23.449697494506836
aF-3.3500990867614746
aF10.050094604492188
aF10.049888610839844
aF16.75006866455078
aF-3.3500261306762695
aF3.349993944168091
aF16.750022888183594
aF-3.3499741554260254
aF16.749849319458008
aF23.449594497680664
aF10.049901008605957
aF3.3500163555145264
aF16.75006103515625
aF-23.450111389160156
aF-10.049734115600586
aF-3.349806308746338
aF3.350245714187622
aF3.3500702381134033
aF10.050032615661621
aF16.749969482421875
aF23.450098037719727
aF-23.44996452331543
aF-10.049967765808105
aF-16.74994659423828
aF-3.349924325942993
aF-3.3498165607452393
aF10.049890518188477
aF16.749988555908203
aF-3.3499457836151123
aF10.049789428710938
aF23.449975967407227
aF-23.450056076049805
aF10.050045013427734
aF-3.3500747680664062
aF10.049934387207031
aF23.449827194213867
aF3.3500051498413086
aF10.049772262573242
aF16.749914169311523
aF23.449724197387695
aF-10.05003833770752
aF-3.3501780033111572
aF16.75006103515625
aF-10.0501070022583
aF-3.3500967025756836
aF16.749656677246094
aF-3.3502180576324463
aF-10.049919128417969
aF3.3496227264404297
aF23.449562072753906
aF-16.750316619873047
aF-3.3502843379974365
aF3.3497674465179443
aF23.4497127532959
aF-3.350151300430298
aF-16.749910354614258
aF-3.3502309322357178
aF10.050005912780762
aF-3.3500099182128906
aF10.049980163574219
aF23.449783325195312
aF-10.050031661987305
aF-3.350260019302368
aF10.049832344055176
aF16.749841690063477
aF23.449600219726562
aF-3.3499932289123535
aF3.349836587905884
aF16.75013542175293
aF-10.04994010925293
aF-3.3501696586608887
aF3.350050926208496
aF23.449602127075195
aF-10.049823760986328
aF-3.3500351905822754
aF16.749622344970703
aF-3.350121259689331
aF10.050127983093262
aF-16.74990463256836
aF-10.049809455871582
aF23.450183868408203
aF-10.049752235412598
aF-3.3497538566589355
aF3.350107431411743
aF10.050060272216797
aF-10.049972534179688
aF3.3502416610717773
aF-23.450172424316406
aF-23.449731826782227
aF-3.3498940467834473
aF-23.449247360229492
aF-10.049806594848633
aF-10.049775123596191
aF-3.3499598503112793
aF-10.049701690673828
aF-10.049844741821289
aF23.450042724609375
aF-10.049680709838867
aF3.3500988483428955
aF-3.3499362468719482
aF-3.349925994873047
aF10.050018310546875
aF23.44994354248047
aF10.049842834472656
aF-23.450319290161133
aF-10.049969673156738
aF-3.350027322769165
aF3.350062370300293
aF10.049623489379883
aF-3.350257635116577
aF3.3498752117156982
aF23.449920654296875
aF-3.3501579761505127
aF-23.450214385986328
aF-3.3502197265625
aF10.04983901977539
aF-23.450103759765625
aF10.04964828491211
aF16.749515533447266
aF16.74997329711914
aF16.749664306640625
aF3.3496673107147217
aF-23.450519561767578
aF3.3497185707092285
aF23.449607849121094
aF-23.449996948242188
aF-23.450002670288086
aF3.349628448486328
aF-3.3501782417297363
aF3.349675416946411
aF23.449459075927734
aF3.3500750064849854
aF-10.050148963928223
aF-3.3503756523132324
aF16.750049591064453
aF-3.3499953746795654
aF-3.349881410598755
aF16.749717712402344
aF-23.449527740478516
aF-10.050033569335938
aF-3.3499155044555664
aF-10.050091743469238
aF-3.3501479625701904
aF3.349883556365967
aF-10.050114631652832
aF10.050039291381836
aF16.749656677246094
aF-16.749897003173828
aF3.349846839904785
aF-16.749937057495117
aF-10.04990005493164
aF-3.350048780441284
aF3.349865674972534
aF10.050025939941406
aF-10.050090789794922
aF-3.3499956130981445
aF3.350287437438965
aF-10.049898147583008
aF-3.3500711917877197
aF-23.449390411376953
aF-16.74959945678711
aF-10.049710273742676
aF16.749967575073242
aF-23.449737548828125
aF-16.749502182006836
aF-23.449846267700195
aF-16.74966812133789
aF-10.04942512512207
aF-3.3501718044281006
aF23.449771881103516
aF-16.749820709228516
aF-10.04973030090332
aF-3.349891185760498
aF3.350107431411743
aF-23.449880599975586
aF-16.749862670898438
aF-10.049524307250977
aF-3.3495352268218994
aF16.749521255493164
aF-16.749692916870117
aF10.049996376037598
aF-23.449935913085938
aF-16.749767303466797
aF-10.049744606018066
aF-10.050146102905273
aF10.050329208374023
aF-23.449203491210938
aF-3.350037097930908
aF3.3501672744750977
aF3.3506224155426025
aF10.050432205200195
aF-16.749542236328125
aF23.449981689453125
aF-3.3498597145080566
aF3.3502838611602783
aF23.450334548950195
aF-10.050020217895508
aF3.350006341934204
aF10.049772262573242
aF-3.350109815597534
aF-10.050172805786133
aF3.350064516067505
aF10.050025939941406
aF10.049948692321777
aF-3.350257158279419
aF-3.349998712539673
aF10.049707412719727
aF-10.050230979919434
aF23.4499568939209
aF10.049671173095703
aF23.449609756469727
aF-3.350172758102417
aF10.049735069274902
aF-10.049798011779785
aF3.349714756011963
aF10.049311637878418
aF23.44965934753418
aF-3.350644111633301
aF-31.876911163330078
aF-33.720706939697266
aF-34.170997619628906
aF-33.67040252685547
aF-32.07003402709961
aF-32.068477630615234
aF-33.67038345336914
aF-30.988967895507812
aF-30.085683822631836
aF-30.98907470703125
aF-30.8363037109375
aF-31.238765716552734
aF-31.586339950561523
aF-41.67219543457031
aF-39.57103729248047
aF-39.569618225097656
aF-39.77711868286133
aF-40.97826385498047
aF-37.73904800415039
aF-38.587398529052734
aF-38.99003219604492
aF-39.69028854370117
aF-39.53776931762695
aF-37.58755874633789
aF-38.98991394042969
aF-38.83720397949219
aF-39.087215423583984
aF-37.58723449707031
aF-39.23880386352539
aF-39.08622741699219
aF-37.48933792114258
aF-38.240272521972656
aF-38.4902229309082
aF-38.3376350402832
aF-50.2962646484375
aF-49.27777099609375
aF-50.25492477416992
aF-50.06519317626953
aF-49.070762634277344
aF-49.47133255004883
aF-49.279296875
aF-50.081993103027344
aF-50.674888610839844
aF-47.33702850341797
aF-47.73959732055664
aF-46.99156188964844
aF-47.493350982666016
aF-47.993988037109375
aF-48.492950439453125
aF-48.74175262451172
aF-46.994266510009766
aF-46.83991622924805
aF-47.244163513183594
aF-47.987003326416016
aF-49.1895637512207
aF-47.743839263916016
aF-47.590721130371094
aF-48.24319839477539
aF-48.090614318847656
aF-48.741912841796875
aF-48.58917999267578
aF31.874454498291016
aF32.86893081665039
aF32.6760368347168
aF33.269283294677734
aF33.076324462890625
aF33.47660446166992
aF32.06937026977539
aF32.86885070800781
aF33.525516510009766
aF32.868045806884766
aF32.67518615722656
aF30.987716674804688
aF30.834962844848633
aF32.18798828125
aF32.03529357910156
aF29.98826026916504
aF29.835586547851562
aF31.238895416259766
aF31.08616828918457
aF30.488204956054688
aF30.335586547851562
aF30.738567352294922
aF30.585969924926758
aF30.988311767578125
aF30.835573196411133
aF31.23809242248535
aF31.737686157226562
aF31.585296630859375
aF39.77531814575195
aF40.36800765991211
aF41.02595138549805
aF40.97676086425781
aF40.368316650390625
aF40.17507553100586
aF41.2182502746582
aF41.02540588378906
aF39.56615447998047
aF39.373226165771484
aF39.967132568359375
aF40.368167877197266
aF40.17510223388672
aF38.334224700927734
aF38.337581634521484
aF38.74005889892578
aF38.58721160888672
aF38.98955154418945
aF37.58738708496094
aF37.585365295410156
aF37.98857879638672
aF37.83599090576172
aF38.23869705200195
aF38.488868713378906
aF38.33629608154297
aF38.73850631713867
aF38.585689544677734
aF38.988189697265625
aF39.237892150878906
aF50.27825164794922
aF50.085262298583984
aF50.720703125
aF48.86709213256836
aF49.669551849365234
aF50.26249313354492
aF49.06126403808594
aF49.46158218383789
aF49.0618896484375
aF48.87035369873047
aF49.46371078491211
aF50.07177734375
aF47.99677658081055
aF47.84271240234375
aF48.2454719543457
aF48.09185028076172
aF47.24474334716797
aF47.34064483642578
aF49.03507614135742
aF47.588623046875
aF48.33755111694336
aF10.049934387207031
aF-23.4499568939209
aF-16.74982452392578
aF23.449745178222656
aF23.44985580444336
aF-10.050018310546875
aF-10.049838066101074
aF10.049664497375488
aF-23.450037002563477
aF16.749765396118164
aF10.050081253051758
aF-16.749879837036133
aF23.449928283691406
aF-23.450204849243164
aF-10.050116539001465
aF-3.349904775619507
aF-10.049713134765625
aF-3.34987211227417
aF16.749982833862305
aF-23.44997215270996
aF-10.049616813659668
aF16.74994659423828
aF-10.049938201904297
aF-23.450153350830078
aF-16.750051498413086
aF-10.049847602844238
aF-16.749977111816406
aF-10.050122261047363
aF-23.450252532958984
aF-23.450347900390625
aF-16.749988555908203
aF-10.05007553100586
aF23.449594497680664
aF-16.75006866455078
aF-3.3502683639526367
aF-16.750049591064453
aF10.049675941467285
aF16.749704360961914
aF23.449678421020508
aF-10.050148010253906
aF16.74983787536621
aF-16.75006675720215
aF23.449705123901367
aF-10.050027847290039
aF10.050130844116211
aF10.050060272216797
aF-3.349761486053467
aF-23.449634552001953
aF-10.049633026123047
aF10.050187110900879
aF3.3502142429351807
aF-23.449018478393555
aF-23.44970703125
aF-3.3498849868774414
aF16.74979591369629
aF3.3501367568969727
aF-16.750015258789062
aF10.049840927124023
aF-3.3501694202423096
aF-10.05002498626709
aF-3.3501386642456055
aF23.45013427734375
aF10.04975700378418
aF16.749704360961914
aF-10.050289154052734
aF23.449705123901367
aF-16.750301361083984
aF-3.3500635623931885
aF16.74956512451172
aF-23.450014114379883
aF-3.3500678539276123
aF23.4498291015625
aF-10.050103187561035
aF10.049578666687012
aF3.349653959274292
aF10.049708366394043
aF-16.750099182128906
aF-16.749982833862305
aF16.749433517456055
aF-16.74998664855957
aF10.049899101257324
aF-10.049482345581055
aF-3.3498809337615967
aF-10.049666404724121
aF10.05053424835205
aF-23.449237823486328
aF-23.44939613342285
aF3.3500561714172363
aF10.050259590148926
aF3.34966778755188
aF23.44985008239746
aF16.750213623046875
aF3.3499629497528076
aF-23.449451446533203
aF-10.049755096435547
aF23.450063705444336
aF-23.449935913085938
aF-10.049609184265137
aF-23.449520111083984
aF10.050146102905273
aF3.349900960922241
aF16.749788284301758
aF16.74989128112793
aF-16.75010108947754
aF23.450037002563477
aF-16.750146865844727
aF-16.750377655029297
aF-23.449613571166992
aF-16.7501163482666
aF3.3499960899353027
aF16.75009536743164
aF23.44993019104004
aF-16.75025749206543
aF-23.450214385986328
aF10.049853324890137
aF10.049505233764648
aF-10.050271034240723
aF23.449262619018555
aF-10.050450325012207
aF-23.45012664794922
aF-3.3503470420837402
aF-23.45001983642578
aF10.049555778503418
aF-33.270748138427734
aF-33.07792282104492
aF-33.72003936767578
aF-33.9771728515625
aF-32.67665100097656
aF-33.0767707824707
aF-29.987831115722656
aF-30.98871612548828
aF-30.238439559936523
aF-31.488346099853516
aF-29.836143493652344
aF-30.23906898498535
aF-30.086437225341797
aF-30.739229202270508
aF-30.58647346496582
aF-31.488649368286133
aF-31.3362979888916
aF-31.73881721496582
aF-40.579620361328125
aF-40.37076187133789
aF-40.770503997802734
aF-40.57792663574219
aF-41.47782516479492
aF-40.57786178588867
aF-37.48878860473633
aF-38.73971176147461
aF-37.83803939819336
aF-38.49020004272461
aF-37.739830017089844
aF-38.086036682128906
aF-39.68865966796875
aF-39.53602600097656
aF-38.98971939086914
aF-39.239540100097656
aF-39.087100982666016
aF-49.699440002441406
aF-49.86343765258789
aF-50.99320983886719
aF-47.489112854003906
aF-48.24046325683594
aF-48.08782196044922
aF-48.490814208984375
aF-47.492645263671875
aF-47.33928680419922
aF-48.238014221191406
aF-49.036766052246094
aF-46.99007034301758
aF-46.83748245239258
aF-47.24134063720703
aF-47.99348068237305
aF32.274871826171875
aF32.46833038330078
aF32.27550506591797
aF32.06684494018555
aF30.487668991088867
aF31.23771095275879
aF31.335208892822266
aF30.98916244506836
aF31.488750457763672
aF31.3359375
aF30.238191604614258
aF30.085723876953125
aF40.975433349609375
aF37.8338623046875
aF38.490291595458984
aF38.836952209472656
aF38.23885726928711
aF38.08599853515625
aF37.33478927612305
aF50.529605865478516
aF49.4609375
aF49.27006149291992
aF49.8604850769043
aF50.66476058959961
aF50.47267150878906
aF50.52877426147461
aF47.33006286621094
aF46.98583221435547
aF47.59266662597656
aF46.84165954589844
aF47.09278869628906
aF-16.75004768371582
aF16.749757766723633
aF-23.450284957885742
aF-23.45030975341797
aF-16.75009536743164
aF-10.049933433532715
aF-23.44990348815918
aF-16.750444412231445
aF-10.050164222717285
aF-16.74996566772461
aF-10.050046920776367
aF-23.450061798095703
aF3.349921226501465
aF-16.749744415283203
aF-10.05005168914795
aF-3.3498570919036865
aF16.749998092651367
aF23.45004653930664
aF-10.049829483032227
aF-16.750120162963867
aF3.3499810695648193
aF-16.750112533569336
aF-23.450471878051758
aF-16.7502384185791
aF3.3498926162719727
aF23.44965934753418
aF-23.45001983642578
aF-10.050086975097656
aF16.74997329711914
aF23.44994354248047
aF-16.750211715698242
aF-10.050146102905273
aF-16.750181198120117
aF-3.3502283096313477
aF16.749717712402344
aF-23.449987411499023
aF-10.050196647644043
aF16.75012969970703
aF-23.450029373168945
aF-16.750078201293945
aF10.049715995788574
aF-10.050201416015625
aF-23.449800491333008
aF23.449806213378906
aF16.749879837036133
aF-23.4500732421875
aF23.449811935424805
aF3.35013747215271
aF-23.450040817260742
aF10.05010986328125
aF16.749889373779297
aF-16.74972152709961
aF23.449838638305664
aF16.74993896484375
aF-23.450136184692383
aF23.449787139892578
aF16.74981689453125
aF10.049904823303223
aF3.3497631549835205
aF16.750083923339844
aF-16.750017166137695
aF-16.750144958496094
aF10.049678802490234
aF16.749765396118164
aF3.3498172760009766
aF23.44996452331543
aF-23.450340270996094
aF-16.750289916992188
aF-10.050203323364258
aF-23.450029373168945
aF-16.750516891479492
aF-3.350290060043335
aF16.74945640563965
aF23.449676513671875
aF-16.750635147094727
aF-3.3503150939941406
aF23.449995040893555
aF-10.050235748291016
aF16.749704360961914
aF-3.350235939025879
aF-10.050271987915039
aF-10.050180435180664
aF-16.750070571899414
aF10.049968719482422
aF-10.04980754852295
aF23.44976806640625
aF23.450008392333984
aF3.3500640392303467
aF10.049924850463867
aF-3.3496100902557373
aF3.350121021270752
aF3.3501007556915283
aF10.049951553344727
aF23.449342727661133
aF-3.3498129844665527
aF10.050155639648438
aF3.350046157836914
aF-3.3495500087738037
aF3.349871873855591
aF10.050065994262695
aF16.74992561340332
aF3.3504443168640137
aF-16.749711990356445
aF-16.749900817871094
aF16.75004768371582
aF23.44986343383789
aF16.749797821044922
aF10.050095558166504
aF16.749755859375
aF23.4497013092041
aF-16.75006103515625
aF23.4498291015625
aF3.3498213291168213
aF10.049833297729492
aF-16.750442504882812
aF-10.050606727600098
aF16.74965476989746
aF-16.7501220703125
aF16.74957275390625
aF23.45016860961914
aF-16.750104904174805
aF23.450353622436523
aF-23.44989776611328
aF-3.3499538898468018
aF16.749370574951172
aF-10.050819396972656
aF-10.050870895385742
aF23.448944091796875
aF-32.87003707885742
aF-32.67709732055664
aF-30.238454818725586
aF-30.085796356201172
aF-30.488767623901367
aF-30.336122512817383
aF-30.739036560058594
aF-30.586517333984375
aF-31.33660125732422
aF-30.83616828918457
aF-31.585973739624023
aF-29.988468170166016
aF-40.17848587036133
aF-39.777687072753906
aF-41.22088623046875
aF-37.33623504638672
aF-37.5864372253418
aF-37.83669662475586
aF-38.239356994628906
aF-38.08686447143555
aF-38.48951721191406
aF-38.336952209472656
aF-38.83754348754883
aF-38.7385139465332
aF-38.585975646972656
aF-38.988548278808594
aF-38.835819244384766
aF-38.58746337890625
aF-50.10442352294922
aF-50.08694839477539
aF-47.99003601074219
aF-47.837425231933594
aF-48.33823776245117
aF-48.085289001464844
aF-48.48851013183594
aF-48.33622360229492
aF-47.08852767944336
aF-47.339603424072266
aF33.66975784301758
aF31.87635040283203
aF33.268497467041016
aF33.47522735595703
aF30.237369537353516
aF30.737619400024414
aF30.58502769470215
aF30.238550186157227
aF30.739330291748047
aF30.586544036865234
aF30.48861312866211
aF30.336238861083984
aF30.738704681396484
aF30.988550186157227
aF31.738203048706055
aF31.085548400878906
aF31.487844467163086
aF31.33521270751953
aF40.17509841918945
aF40.57614517211914
aF40.57559585571289
aF37.98945236206055
aF37.83687973022461
aF38.48830795288086
aF38.3358154296875
aF39.085227966308594
aF39.68791198730469
aF39.53525924682617
aF38.08609390258789
aF38.83567428588867
aF49.077186584472656
aF48.88326644897461
aF49.28353500366211
aF50.473018646240234
aF46.833702087402344
aF47.237918853759766
aF47.08503341674805
aF47.49151611328125
aF47.3387451171875
aF48.58987808227539
aF46.99462890625
aF47.4936408996582
aF47.737701416015625
aF47.58441162109375
aF47.98737335205078
aF47.834693908691406
aF48.738224029541016
aF48.585479736328125
aF48.08885192871094
aF-16.75005340576172
aF3.3499162197113037
aF10.049676895141602
aF-16.750022888183594
aF-23.449710845947266
aF16.74997329711914
aF23.450092315673828
aF3.3497214317321777
aF10.049756050109863
aF3.349907398223877
aF23.44955825805664
aF3.3500545024871826
aF23.45013427734375
aF-23.449270248413086
aF23.450088500976562
aF-23.449552536010742
aF-3.3502519130706787
aF3.349621534347534
aF23.44940757751465
aF-23.450288772583008
aF-16.75004005432129
aF10.050088882446289
aF-3.3500964641571045
aF23.449462890625
aF-3.3499834537506104
aF23.449962615966797
aF-23.449453353881836
aF-23.450565338134766
aF-10.050561904907227
aF-23.450225830078125
aF16.749311447143555
aF16.749652862548828
aF-40.371578216552734
aF-41.479042053222656
aF-39.56961441040039
aF-40.77128601074219
aF-38.088165283203125
aF-37.4898796081543
aF-37.33721923828125
aF-49.29653549194336
aF-47.84058380126953
aF-48.589141845703125
aF33.07577133178711
aF29.986717224121094
aF31.585899353027344
aF29.989376068115234
aF29.836498260498047
aF30.238676071166992
aF41.16891860961914
aF39.23943328857422
aF39.08698272705078
aF37.49063491821289
aF37.33790588378906
aF37.73978805541992
aF38.835121154785156
aF39.238040924072266
aF46.82904815673828
aF48.74252700805664
aF48.23759841918945
aF48.08468246459961
aF47.83895492553711
aF48.58660125732422
aF-23.449893951416016
aF-16.74984359741211
aF-10.049774169921875
aF23.449832916259766
aF23.450048446655273
aF-16.750043869018555
aF-23.44989776611328
aF-23.44998550415039
aF10.049927711486816
aF-23.45003318786621
aF3.350160598754883
aF10.049941062927246
aF-10.050065040588379
aF-16.750106811523438
aF-23.450117111206055
aF23.450096130371094
aF16.749866485595703
aF-23.449857711791992
aF-10.049962997436523
aF3.3499410152435303
aF16.750104904174805
aF23.450122833251953
aF16.750104904174805
aF23.44971466064453
aF16.750011444091797
aF-16.750093460083008
aF-16.74985122680664
aF-16.749683380126953
aF16.749874114990234
aF-23.449871063232422
aF10.050131797790527
aF23.450284957885742
aF10.05002498626709
aF16.749954223632812
aF3.3500139713287354
aF16.750030517578125
aF3.3500542640686035
aF16.74974822998047
aF3.3496553897857666
aF-10.050060272216797
aF-3.3504014015197754
aF-3.3504340648651123
aF23.449792861938477
aF-23.4498291015625
aF3.34969162940979
aF-3.350170850753784
aF-23.449932098388672
aF23.45022964477539
aF23.450031280517578
aF23.44956398010254
aF16.749711990356445
aF23.449710845947266
aF16.749685287475586
aF16.74993896484375
aF23.449554443359375
aF-23.449462890625
aF23.45015525817871
aF23.45024871826172
aF3.3501789569854736
aF16.750123977661133
aF23.45011329650879
aF16.749910354614258
aF16.749984741210938
aF23.450082778930664
aF3.350001335144043
aF-23.449886322021484
aF-16.749937057495117
aF-10.05029582977295
aF-3.350416660308838
aF3.349428415298462
aF23.44951820373535
aF10.049580574035645
aF10.049323081970215
aF-33.269744873046875
aF-30.83554458618164
aF-31.086130142211914
aF-40.770774841308594
aF-37.9897346496582
aF-49.89255905151367
aF30.489137649536133
aF30.336584091186523
aF31.73842430114746
aF30.586082458496094
aF48.584041595458984
aF47.74538803100586
aF48.4932975769043
aF-16.74998664855957
aF16.749868392944336
aF16.749610900878906
aF-23.45021629333496
aF-10.049955368041992
aF23.449600219726562
aF-23.4498291015625
aF-10.049943923950195
aF16.750011444091797
aF-16.749916076660156
aF-10.049837112426758
aF23.450136184692383
aF-16.7499942779541
aF-3.3499622344970703
aF16.749765396118164
aF-23.44976043701172
aF10.049694061279297
aF23.44959259033203
aF16.749788284301758
aF-16.74992561340332
aF10.049992561340332
aF-23.449861526489258
aF10.04974365234375
aF10.049820899963379
aF-16.749889373779297
aF23.449674606323242
aF-23.44997787475586
aF3.3501410484313965
aF-16.74966812133789
aF-23.450159072875977
aF-16.749656677246094
aF-16.74982261657715
aF-10.049867630004883
aF10.050108909606934
aF-16.749954223632812
aF23.44968032836914
aF23.4497127532959
aF23.44968032836914
aF-23.45059585571289
aF-16.750244140625
aF23.44939422607422
aF10.049539566040039
aF16.749608993530273
aF10.049808502197266
aF3.349733352661133
aF10.049580574035645
aF16.749832153320312
aF-16.75006866455078
aF10.049628257751465
aF23.449792861938477
aF16.74981117248535
aF-23.44989776611328
aF16.74980354309082
aF23.4502010345459
aF3.3504135608673096
aF16.74988555908203
aF-23.449844360351562
aF-23.449316024780273
aF-23.4498291015625
aF10.050405502319336
aF-16.749662399291992
aF3.3504977226257324
aF16.749704360961914
aF16.749881744384766
aF-23.449939727783203
aF3.3503503799438477
aF-23.450393676757812
aF-3.350125789642334
aF16.74979591369629
aF16.749502182006836
aF-10.049932479858398
aF3.349721670150757
aF23.449546813964844
aF-33.97788619995117
aF-30.739185333251953
aF-31.08624267578125
aF-31.488357543945312
aF-38.33781051635742
aF-49.87239456176758
aF-49.680625915527344
aF-47.34019088745117
aF-48.09077072143555
aF32.867794036865234
aF30.08483123779297
aF31.585289001464844
aF30.08555793762207
aF30.836410522460938
aF38.084110260009766
aF38.58478546142578
aF39.237972259521484
aF39.08500289916992
aF39.53502655029297
aF49.47590255737305
aF47.23149108886719
aF47.08000183105469
aF47.58081817626953
aF48.3338737487793
aF48.73691940307617
aF48.340660095214844
aF48.48786544799805
aF48.33530044555664
aF-23.449901580810547
aF10.049894332885742
aF-16.74973487854004
aF-23.45024871826172
aF3.349870443344116
aF10.050044059753418
aF23.449880599975586
aF-16.750255584716797
aF23.449604034423828
aF-16.74964714050293
aF-3.3498356342315674
aF16.75009536743164
aF10.050177574157715
aF16.74994468688965
aF-16.749855041503906
aF23.450151443481445
aF-16.749597549438477
aF-10.049909591674805
aF23.450008392333984
aF3.3500280380249023
aF-23.449970245361328
aF-10.050032615661621
aF10.050004959106445
aF10.049470901489258
aF-3.350459337234497
aF10.049220085144043
aF10.049554824829102
aF16.749601364135742
aF3.349926233291626
aF10.049397468566895
aF-10.05008602142334
aF10.049637794494629
aF-23.449935913085938
aF10.050034523010254
aF23.44997787475586
aF16.74998664855957
aF23.44956398010254
aF-23.449913024902344
aF10.050216674804688
aF-16.750076293945312
aF23.450153350830078
aF-16.749889373779297
aF-16.749574661254883
aF10.05025863647461
aF-16.74995994567871
aF-3.3496246337890625
aF10.049786567687988
aF-10.04983901977539
aF10.050105094909668
aF10.05002212524414
aF-3.349821090698242
aF10.050104141235352
aF-10.049906730651855
aF-3.349963903427124
aF10.050003051757812
aF-3.349792718887329
aF-23.449817657470703
aF-3.3498523235321045
aF3.350250482559204
aF16.749568939208984
aF23.449777603149414
aF3.3499178886413574
aF-3.350440263748169
aF-23.449954986572266
aF-10.050232887268066
aF-32.06881332397461
aF-29.83602523803711
aF-30.836469650268555
aF-31.239055633544922
aF-29.989158630371094
aF-31.23908042907715
aF-31.335647583007812
aF-32.18826675415039
aF-30.489063262939453
aF-39.9704704284668
aF-37.989261627197266
aF-37.489952087402344
aF-37.337669372558594
aF-46.8387336730957
aF-47.49251174926758
aF32.18800354003906
aF32.03541564941406
aF38.9876823425293
aF47.7332878112793
aF49.18724822998047
aF49.03466796875
aF46.8328971862793
aF-3.3505072593688965
aF-16.750032424926758
aF-10.05004596710205
aF-16.749786376953125
aF-10.04997444152832
aF-3.3498291969299316
aF-10.049837112426758
aF-16.74933624267578
aF-10.049205780029297
aF-3.3498284816741943
aF23.45015525817871
aF-3.3500399589538574
aF-3.350281000137329
aF-3.3505842685699463
aF-16.750410079956055
aF-31.48917007446289
aF-30.239412307739258
aF-31.238269805908203
aF-49.191444396972656
aF-49.024295806884766
aF-16.749677658081055
aF-16.74997329711914
aF-16.74992561340332
aF-3.3502070903778076
aF-23.449867248535156
aF-16.750001907348633
aF-16.74994468688965
aF-10.049886703491211
aF-16.749601364135742
aF3.3501269817352295
aF-23.449901580810547
aF-23.449695587158203
aF-10.049712181091309
aF-3.3499386310577393
aF3.349946975708008
aF16.750083923339844
aF-23.450130462646484
aF-23.450223922729492
aF-16.750259399414062
aF3.3497939109802246
aF-16.75018882751465
aF-10.05014419555664
aF-16.75000762939453
aF16.749799728393555
aF16.74974822998047
aF23.44948387145996
aF-16.74945831298828
aF23.449674606323242
aF16.750507354736328
aF23.450355529785156
aF16.75
aF-3.3499457836151123
aF-10.049784660339355
aF-16.749652862548828
aF-3.3500595092773438
aF10.049873352050781
aF3.3498921394348145
aF16.749862670898438
aF23.449859619140625
aF-3.3500924110412598
aF3.3498735427856445
aF-31.33588218688965
aF-31.7383975982666
aF-30.33635711669922
aF-38.488338470458984
aF-38.33584976196289
aF-38.74009704589844
aF-47.83448028564453
aF31.48794174194336
aF47.48236846923828
aF-3.3502256870269775
aF-16.749889373779297
aF-23.449462890625
aF-10.050580024719238
aF-10.050291061401367
aF16.749774932861328
aF10.049894332885742
aF3.3502442836761475
aF16.75030517578125
aF16.749988555908203
aF-10.049978256225586
aF-3.3502185344696045
aF-16.750303268432617
aF31.58556365966797
aF-23.44997215270996
aF-23.44951820373535
aF-16.74957847595215
aF-23.44987678527832
aF-23.450214385986328
aF-47.58732986450195
aF-3.350027084350586
aF-16.750242233276367
aF-23.449871063232422
aF10.050043106079102
aF10.049818992614746
aF23.450252532958984
aF16.74994468688965
aF-23.449655532836914
aF10.05013656616211
aF-10.050031661987305
aF-23.450212478637695
aF-23.449935913085938
aF-23.45053482055664
aF-30.98805046081543
aF-16.7498779296875
aF-23.450124740600586
aF-16.749935150146484
aF16.749771118164062
aF23.449583053588867
aF23.449939727783203
aF3.350175380706787
aF-23.449922561645508
aF23.449867248535156
aF-32.03584671020508
aF-16.750024795532227
aF-10.050164222717285
aF23.449617385864258
aF23.449899673461914
aF-23.4498291015625
aF-23.450027465820312
aF10.050094604492188
aF-10.050098419189453
aF-16.750329971313477
aF-31.085527420043945
aF-37.73986053466797
aF31.488176345825195
aF31.33566665649414
aF39.687740325927734
aF37.48773956298828
aF-16.74979591369629
aF-10.049934387207031
aF-10.049678802490234
aF-31.739145278930664
aF-31.586484909057617
aF-23.45012664794922
aF-3.3498218059539795
aF-48.73918914794922
aF-48.586753845214844
aF16.749691009521484
aF-3.349828004837036
aF10.049700736999512
aF-10.050002098083496
aF16.750091552734375
aF-16.749858856201172
aF-23.44971466064453
aF-23.449953079223633
aF-23.45011329650879
aF3.3494691848754883
aF3.349843740463257
aF16.749662399291992
aF10.050029754638672
aF-10.049969673156738
aF16.750164031982422
aF-23.44991683959961
aF-16.7498779296875
aF-16.750347137451172
aF-16.750835418701172
aF31.738012313842773
aF-23.449499130249023
aF-10.05014419555664
aF23.449987411499023
aF-10.049911499023438
aF10.050092697143555
aF23.449399948120117
aF-23.449981689453125
aF23.45001220703125
aF-16.74995231628418
aF-3.3502044677734375
aF-16.7500057220459
aF-16.74979019165039
aF16.750059127807617
aF3.3492515087127686
aF-16.750028610229492
aF-16.74956703186035
aF-23.450193405151367
aF23.44968032836914
aF-10.050248146057129
aF-16.750085830688477
aa.